Archive member included to satisfy reference by file (symbol)

c:/nxp/mcuxpressoide_11.6.0_8187/ide/plugins/com.nxp.mcuxpresso.tools.win32_11.6.0.202112161359/tools/bin/../lib/gcc/arm-none-eabi/10.3.1/../../../../arm-none-eabi/lib/thumb/v7e-m+fp/hard\libcr_nohost_nf.a(_cr__main.o)
                              ./startup/startup_mimxrt1052.o (__main)
c:/nxp/mcuxpressoide_11.6.0_8187/ide/plugins/com.nxp.mcuxpresso.tools.win32_11.6.0.202112161359/tools/bin/../lib/gcc/arm-none-eabi/10.3.1/../../../../arm-none-eabi/lib/thumb/v7e-m+fp/hard\libcr_c.a(memcpy.o)
                              ./utilities/fsl_str.o (memcpy)
c:/nxp/mcuxpressoide_11.6.0_8187/ide/plugins/com.nxp.mcuxpresso.tools.win32_11.6.0.202112161359/tools/bin/../lib/gcc/arm-none-eabi/10.3.1/../../../../arm-none-eabi/lib/thumb/v7e-m+fp/hard\libcr_c.a(memset.o)
                              ./utilities/fsl_debug_console.o (memset)
c:/nxp/mcuxpressoide_11.6.0_8187/ide/plugins/com.nxp.mcuxpresso.tools.win32_11.6.0.202112161359/tools/bin/../lib/gcc/arm-none-eabi/10.3.1/../../../../arm-none-eabi/lib/thumb/v7e-m+fp/hard\libcr_c.a(alloc.o)
                              ./drivers/fsl_common.o (malloc)
c:/nxp/mcuxpressoide_11.6.0_8187/ide/plugins/com.nxp.mcuxpresso.tools.win32_11.6.0.202112161359/tools/bin/../lib/gcc/arm-none-eabi/10.3.1/../../../../arm-none-eabi/lib/thumb/v7e-m+fp/hard\libcr_c.a(errno.o)
                              ./utilities/fsl_str.o (errno)
c:/nxp/mcuxpressoide_11.6.0_8187/ide/plugins/com.nxp.mcuxpresso.tools.win32_11.6.0.202112161359/tools/bin/../lib/gcc/arm-none-eabi/10.3.1/../../../../arm-none-eabi/lib/thumb/v7e-m+fp/hard\libcr_c.a(initio.o)
                              c:/nxp/mcuxpressoide_11.6.0_8187/ide/plugins/com.nxp.mcuxpresso.tools.win32_11.6.0.202112161359/tools/bin/../lib/gcc/arm-none-eabi/10.3.1/../../../../arm-none-eabi/lib/thumb/v7e-m+fp/hard\libcr_nohost_nf.a(_cr__main.o) (_initio)
c:/nxp/mcuxpressoide_11.6.0_8187/ide/plugins/com.nxp.mcuxpresso.tools.win32_11.6.0.202112161359/tools/bin/../lib/gcc/arm-none-eabi/10.3.1/../../../../arm-none-eabi/lib/thumb/v7e-m+fp/hard\libcr_c.a(scanf.o)
                              ./utilities/fsl_str.o (strtoul)
c:/nxp/mcuxpressoide_11.6.0_8187/ide/plugins/com.nxp.mcuxpresso.tools.win32_11.6.0.202112161359/tools/bin/../lib/gcc/arm-none-eabi/10.3.1/../../../../arm-none-eabi/lib/thumb/v7e-m+fp/hard\libcr_c.a(setvbuf.o)
                              c:/nxp/mcuxpressoide_11.6.0_8187/ide/plugins/com.nxp.mcuxpresso.tools.win32_11.6.0.202112161359/tools/bin/../lib/gcc/arm-none-eabi/10.3.1/../../../../arm-none-eabi/lib/thumb/v7e-m+fp/hard\libcr_c.a(initio.o) (setvbuf)
c:/nxp/mcuxpressoide_11.6.0_8187/ide/plugins/com.nxp.mcuxpresso.tools.win32_11.6.0.202112161359/tools/bin/../lib/gcc/arm-none-eabi/10.3.1/../../../../arm-none-eabi/lib/thumb/v7e-m+fp/hard\libcr_c.a(strlen.o)
                              ./utilities/fsl_str.o (strlen)
c:/nxp/mcuxpressoide_11.6.0_8187/ide/plugins/com.nxp.mcuxpresso.tools.win32_11.6.0.202112161359/tools/bin/../lib/gcc/arm-none-eabi/10.3.1/../../../../arm-none-eabi/lib/thumb/v7e-m+fp/hard\libcr_c.a(ungetc.o)
                              c:/nxp/mcuxpressoide_11.6.0_8187/ide/plugins/com.nxp.mcuxpresso.tools.win32_11.6.0.202112161359/tools/bin/../lib/gcc/arm-none-eabi/10.3.1/../../../../arm-none-eabi/lib/thumb/v7e-m+fp/hard\libcr_c.a(scanf.o) (ungetc)
c:/nxp/mcuxpressoide_11.6.0_8187/ide/plugins/com.nxp.mcuxpresso.tools.win32_11.6.0.202112161359/tools/bin/../lib/gcc/arm-none-eabi/10.3.1/../../../../arm-none-eabi/lib/thumb/v7e-m+fp/hard\libcr_c.a(__fillbuf.o)
                              c:/nxp/mcuxpressoide_11.6.0_8187/ide/plugins/com.nxp.mcuxpresso.tools.win32_11.6.0.202112161359/tools/bin/../lib/gcc/arm-none-eabi/10.3.1/../../../../arm-none-eabi/lib/thumb/v7e-m+fp/hard\libcr_c.a(scanf.o) (__filbuf)
c:/nxp/mcuxpressoide_11.6.0_8187/ide/plugins/com.nxp.mcuxpresso.tools.win32_11.6.0.202112161359/tools/bin/../lib/gcc/arm-none-eabi/10.3.1/../../../../arm-none-eabi/lib/thumb/v7e-m+fp/hard\libcr_c.a(__init_alloc.o)
                              c:/nxp/mcuxpressoide_11.6.0_8187/ide/plugins/com.nxp.mcuxpresso.tools.win32_11.6.0.202112161359/tools/bin/../lib/gcc/arm-none-eabi/10.3.1/../../../../arm-none-eabi/lib/thumb/v7e-m+fp/hard\libcr_c.a(alloc.o) (__heaps)
c:/nxp/mcuxpressoide_11.6.0_8187/ide/plugins/com.nxp.mcuxpresso.tools.win32_11.6.0.202112161359/tools/bin/../lib/gcc/arm-none-eabi/10.3.1/../../../../arm-none-eabi/lib/thumb/v7e-m+fp/hard\libcr_c.a(_cr_sbrk.o)
                              c:/nxp/mcuxpressoide_11.6.0_8187/ide/plugins/com.nxp.mcuxpresso.tools.win32_11.6.0.202112161359/tools/bin/../lib/gcc/arm-none-eabi/10.3.1/../../../../arm-none-eabi/lib/thumb/v7e-m+fp/hard\libcr_c.a(alloc.o) (_sbrk)
c:/nxp/mcuxpressoide_11.6.0_8187/ide/plugins/com.nxp.mcuxpresso.tools.win32_11.6.0.202112161359/tools/bin/../lib/gcc/arm-none-eabi/10.3.1/../../../../arm-none-eabi/lib/thumb/v7e-m+fp/hard\libcr_c.a(_deferredlazyseek.o)
                              c:/nxp/mcuxpressoide_11.6.0_8187/ide/plugins/com.nxp.mcuxpresso.tools.win32_11.6.0.202112161359/tools/bin/../lib/gcc/arm-none-eabi/10.3.1/../../../../arm-none-eabi/lib/thumb/v7e-m+fp/hard\libcr_c.a(__fillbuf.o) (_deferredlazyseek)
c:/nxp/mcuxpressoide_11.6.0_8187/ide/plugins/com.nxp.mcuxpresso.tools.win32_11.6.0.202112161359/tools/bin/../lib/gcc/arm-none-eabi/10.3.1/../../../../arm-none-eabi/lib/thumb/v7e-m+fp/hard\libcr_c.a(_fdopen.o)
                              c:/nxp/mcuxpressoide_11.6.0_8187/ide/plugins/com.nxp.mcuxpresso.tools.win32_11.6.0.202112161359/tools/bin/../lib/gcc/arm-none-eabi/10.3.1/../../../../arm-none-eabi/lib/thumb/v7e-m+fp/hard\libcr_c.a(initio.o) (_fdopen)
c:/nxp/mcuxpressoide_11.6.0_8187/ide/plugins/com.nxp.mcuxpresso.tools.win32_11.6.0.202112161359/tools/bin/../lib/gcc/arm-none-eabi/10.3.1/../../../../arm-none-eabi/lib/thumb/v7e-m+fp/hard\libcr_c.a(_fflush.o)
                              c:/nxp/mcuxpressoide_11.6.0_8187/ide/plugins/com.nxp.mcuxpresso.tools.win32_11.6.0.202112161359/tools/bin/../lib/gcc/arm-none-eabi/10.3.1/../../../../arm-none-eabi/lib/thumb/v7e-m+fp/hard\libcr_c.a(__fillbuf.o) (_fflush)
c:/nxp/mcuxpressoide_11.6.0_8187/ide/plugins/com.nxp.mcuxpresso.tools.win32_11.6.0.202112161359/tools/bin/../lib/gcc/arm-none-eabi/10.3.1/../../../../arm-none-eabi/lib/thumb/v7e-m+fp/hard\libcr_c.a(_frexpl.o)
                              c:/nxp/mcuxpressoide_11.6.0_8187/ide/plugins/com.nxp.mcuxpresso.tools.win32_11.6.0.202112161359/tools/bin/../lib/gcc/arm-none-eabi/10.3.1/../../../../arm-none-eabi/lib/thumb/v7e-m+fp/hard\libcr_c.a(scanf.o) (_frexpl)
c:/nxp/mcuxpressoide_11.6.0_8187/ide/plugins/com.nxp.mcuxpresso.tools.win32_11.6.0.202112161359/tools/bin/../lib/gcc/arm-none-eabi/10.3.1/../../../../arm-none-eabi/lib/thumb/v7e-m+fp/hard\libcr_c.a(_ldexpl.o)
                              c:/nxp/mcuxpressoide_11.6.0_8187/ide/plugins/com.nxp.mcuxpresso.tools.win32_11.6.0.202112161359/tools/bin/../lib/gcc/arm-none-eabi/10.3.1/../../../../arm-none-eabi/lib/thumb/v7e-m+fp/hard\libcr_c.a(scanf.o) (_ldexpl)
c:/nxp/mcuxpressoide_11.6.0_8187/ide/plugins/com.nxp.mcuxpresso.tools.win32_11.6.0.202112161359/tools/bin/../lib/gcc/arm-none-eabi/10.3.1/../../../../arm-none-eabi/lib/thumb/v7e-m+fp/hard\libcr_c.a(_writebuf.o)
                              c:/nxp/mcuxpressoide_11.6.0_8187/ide/plugins/com.nxp.mcuxpresso.tools.win32_11.6.0.202112161359/tools/bin/../lib/gcc/arm-none-eabi/10.3.1/../../../../arm-none-eabi/lib/thumb/v7e-m+fp/hard\libcr_c.a(_deferredlazyseek.o) (_Cwritebuf)
c:/nxp/mcuxpressoide_11.6.0_8187/ide/plugins/com.nxp.mcuxpresso.tools.win32_11.6.0.202112161359/tools/bin/../lib/gcc/arm-none-eabi/10.3.1/../../../../arm-none-eabi/lib/thumb/v7e-m+fp/hard\libcr_c.a(ctype.o)
                              c:/nxp/mcuxpressoide_11.6.0_8187/ide/plugins/com.nxp.mcuxpresso.tools.win32_11.6.0.202112161359/tools/bin/../lib/gcc/arm-none-eabi/10.3.1/../../../../arm-none-eabi/lib/thumb/v7e-m+fp/hard\libcr_c.a(scanf.o) (__ctype)
c:/nxp/mcuxpressoide_11.6.0_8187/ide/plugins/com.nxp.mcuxpresso.tools.win32_11.6.0.202112161359/tools/bin/../lib/gcc/arm-none-eabi/10.3.1/../../../../arm-none-eabi/lib/thumb/v7e-m+fp/hard\libcr_c.a(fclose.o)
                              c:/nxp/mcuxpressoide_11.6.0_8187/ide/plugins/com.nxp.mcuxpresso.tools.win32_11.6.0.202112161359/tools/bin/../lib/gcc/arm-none-eabi/10.3.1/../../../../arm-none-eabi/lib/thumb/v7e-m+fp/hard\libcr_c.a(initio.o) (fclose)
c:/nxp/mcuxpressoide_11.6.0_8187/ide/plugins/com.nxp.mcuxpresso.tools.win32_11.6.0.202112161359/tools/bin/../lib/gcc/arm-none-eabi/10.3.1/../../../../arm-none-eabi/lib/thumb/v7e-m+fp/hard\libcr_c.a(fflush.o)
                              c:/nxp/mcuxpressoide_11.6.0_8187/ide/plugins/com.nxp.mcuxpresso.tools.win32_11.6.0.202112161359/tools/bin/../lib/gcc/arm-none-eabi/10.3.1/../../../../arm-none-eabi/lib/thumb/v7e-m+fp/hard\libcr_c.a(fclose.o) (fflush)
c:/nxp/mcuxpressoide_11.6.0_8187/ide/plugins/com.nxp.mcuxpresso.tools.win32_11.6.0.202112161359/tools/bin/../lib/gcc/arm-none-eabi/10.3.1/../../../../arm-none-eabi/lib/thumb/v7e-m+fp/hard\libcr_c.a(fseek.o)
                              c:/nxp/mcuxpressoide_11.6.0_8187/ide/plugins/com.nxp.mcuxpresso.tools.win32_11.6.0.202112161359/tools/bin/../lib/gcc/arm-none-eabi/10.3.1/../../../../arm-none-eabi/lib/thumb/v7e-m+fp/hard\libcr_c.a(_deferredlazyseek.o) (fseek)
c:/nxp/mcuxpressoide_11.6.0_8187/ide/plugins/com.nxp.mcuxpresso.tools.win32_11.6.0.202112161359/tools/bin/../lib/gcc/arm-none-eabi/10.3.1/../../../../arm-none-eabi/lib/thumb/v7e-m+fp/hard\libcr_c.a(ftell.o)
                              c:/nxp/mcuxpressoide_11.6.0_8187/ide/plugins/com.nxp.mcuxpresso.tools.win32_11.6.0.202112161359/tools/bin/../lib/gcc/arm-none-eabi/10.3.1/../../../../arm-none-eabi/lib/thumb/v7e-m+fp/hard\libcr_c.a(fseek.o) (ftell)
c:/nxp/mcuxpressoide_11.6.0_8187/ide/plugins/com.nxp.mcuxpresso.tools.win32_11.6.0.202112161359/tools/bin/../lib/gcc/arm-none-eabi/10.3.1/../../../../arm-none-eabi/lib/thumb/v7e-m+fp/hard\libcr_c.a(remove.o)
                              c:/nxp/mcuxpressoide_11.6.0_8187/ide/plugins/com.nxp.mcuxpresso.tools.win32_11.6.0.202112161359/tools/bin/../lib/gcc/arm-none-eabi/10.3.1/../../../../arm-none-eabi/lib/thumb/v7e-m+fp/hard\libcr_c.a(fclose.o) (remove)
c:/nxp/mcuxpressoide_11.6.0_8187/ide/plugins/com.nxp.mcuxpresso.tools.win32_11.6.0.202112161359/tools/bin/../lib/gcc/arm-none-eabi/10.3.1/../../../../arm-none-eabi/lib/thumb/v7e-m+fp/hard\libcr_c.a(_cr_check_heap.o)
                              c:/nxp/mcuxpressoide_11.6.0_8187/ide/plugins/com.nxp.mcuxpresso.tools.win32_11.6.0.202112161359/tools/bin/../lib/gcc/arm-none-eabi/10.3.1/../../../../arm-none-eabi/lib/thumb/v7e-m+fp/hard\libcr_c.a(_cr_sbrk.o) (__check_heap_overflow)
c:/nxp/mcuxpressoide_11.6.0_8187/ide/plugins/com.nxp.mcuxpresso.tools.win32_11.6.0.202112161359/tools/bin/../lib/gcc/arm-none-eabi/10.3.1/../../../../arm-none-eabi/lib/thumb/v7e-m+fp/hard\libcr_c.a(_do_fflush.o)
                              c:/nxp/mcuxpressoide_11.6.0_8187/ide/plugins/com.nxp.mcuxpresso.tools.win32_11.6.0.202112161359/tools/bin/../lib/gcc/arm-none-eabi/10.3.1/../../../../arm-none-eabi/lib/thumb/v7e-m+fp/hard\libcr_c.a(fflush.o) (_do_fflush)
c:/nxp/mcuxpressoide_11.6.0_8187/ide/plugins/com.nxp.mcuxpresso.tools.win32_11.6.0.202112161359/tools/bin/../lib/gcc/arm-none-eabi/10.3.1/thumb/v7e-m+fp/hard\libcr_eabihelpers.a(division_64.o)
                              ./drivers/fsl_clock.o (__aeabi_uldivmod)
c:/nxp/mcuxpressoide_11.6.0_8187/ide/plugins/com.nxp.mcuxpresso.tools.win32_11.6.0.202112161359/tools/bin/../lib/gcc/arm-none-eabi/10.3.1/thumb/v7e-m+fp/hard\libcr_eabihelpers.a(division_idiv0.o)
                              c:/nxp/mcuxpressoide_11.6.0_8187/ide/plugins/com.nxp.mcuxpresso.tools.win32_11.6.0.202112161359/tools/bin/../lib/gcc/arm-none-eabi/10.3.1/thumb/v7e-m+fp/hard\libcr_eabihelpers.a(division_64.o) (__aeabi_idiv0)
c:/nxp/mcuxpressoide_11.6.0_8187/ide/plugins/com.nxp.mcuxpresso.tools.win32_11.6.0.202112161359/tools/bin/../lib/gcc/arm-none-eabi/10.3.1/thumb/v7e-m+fp/hard\libcr_eabihelpers.a(double.o)
                              c:/nxp/mcuxpressoide_11.6.0_8187/ide/plugins/com.nxp.mcuxpresso.tools.win32_11.6.0.202112161359/tools/bin/../lib/gcc/arm-none-eabi/10.3.1/../../../../arm-none-eabi/lib/thumb/v7e-m+fp/hard\libcr_c.a(scanf.o) (__aeabi_dmul)
c:/nxp/mcuxpressoide_11.6.0_8187/ide/plugins/com.nxp.mcuxpresso.tools.win32_11.6.0.202112161359/tools/bin/../lib/gcc/arm-none-eabi/10.3.1/thumb/v7e-m+fp/hard\libcr_eabihelpers.a(memcpy.o)
                              c:/nxp/mcuxpressoide_11.6.0_8187/ide/plugins/com.nxp.mcuxpresso.tools.win32_11.6.0.202112161359/tools/bin/../lib/gcc/arm-none-eabi/10.3.1/../../../../arm-none-eabi/lib/thumb/v7e-m+fp/hard\libcr_c.a(memcpy.o) (__aeabi_memcpy)
c:/nxp/mcuxpressoide_11.6.0_8187/ide/plugins/com.nxp.mcuxpresso.tools.win32_11.6.0.202112161359/tools/bin/../lib/gcc/arm-none-eabi/10.3.1/../../../../arm-none-eabi/lib/thumb/v7e-m+fp/hard\libcr_nohost_nf.a(__ciob.o)
                              c:/nxp/mcuxpressoide_11.6.0_8187/ide/plugins/com.nxp.mcuxpresso.tools.win32_11.6.0.202112161359/tools/bin/../lib/gcc/arm-none-eabi/10.3.1/../../../../arm-none-eabi/lib/thumb/v7e-m+fp/hard\libcr_c.a(initio.o) (__Ciob)
c:/nxp/mcuxpressoide_11.6.0_8187/ide/plugins/com.nxp.mcuxpresso.tools.win32_11.6.0.202112161359/tools/bin/../lib/gcc/arm-none-eabi/10.3.1/../../../../arm-none-eabi/lib/thumb/v7e-m+fp/hard\libcr_nohost_nf.a(__sys_appexit.o)
                              c:/nxp/mcuxpressoide_11.6.0_8187/ide/plugins/com.nxp.mcuxpresso.tools.win32_11.6.0.202112161359/tools/bin/../lib/gcc/arm-none-eabi/10.3.1/../../../../arm-none-eabi/lib/thumb/v7e-m+fp/hard\libcr_c.a(alloc.o) (__sys_appexit)
c:/nxp/mcuxpressoide_11.6.0_8187/ide/plugins/com.nxp.mcuxpresso.tools.win32_11.6.0.202112161359/tools/bin/../lib/gcc/arm-none-eabi/10.3.1/../../../../arm-none-eabi/lib/thumb/v7e-m+fp/hard\libcr_nohost_nf.a(__sys_close.o)
                              c:/nxp/mcuxpressoide_11.6.0_8187/ide/plugins/com.nxp.mcuxpresso.tools.win32_11.6.0.202112161359/tools/bin/../lib/gcc/arm-none-eabi/10.3.1/../../../../arm-none-eabi/lib/thumb/v7e-m+fp/hard\libcr_c.a(fclose.o) (__sys_close)
c:/nxp/mcuxpressoide_11.6.0_8187/ide/plugins/com.nxp.mcuxpresso.tools.win32_11.6.0.202112161359/tools/bin/../lib/gcc/arm-none-eabi/10.3.1/../../../../arm-none-eabi/lib/thumb/v7e-m+fp/hard\libcr_nohost_nf.a(__sys_flen.o)
                              c:/nxp/mcuxpressoide_11.6.0_8187/ide/plugins/com.nxp.mcuxpresso.tools.win32_11.6.0.202112161359/tools/bin/../lib/gcc/arm-none-eabi/10.3.1/../../../../arm-none-eabi/lib/thumb/v7e-m+fp/hard\libcr_c.a(_writebuf.o) (__sys_flen)
c:/nxp/mcuxpressoide_11.6.0_8187/ide/plugins/com.nxp.mcuxpresso.tools.win32_11.6.0.202112161359/tools/bin/../lib/gcc/arm-none-eabi/10.3.1/../../../../arm-none-eabi/lib/thumb/v7e-m+fp/hard\libcr_nohost_nf.a(__sys_istty.o)
                              c:/nxp/mcuxpressoide_11.6.0_8187/ide/plugins/com.nxp.mcuxpresso.tools.win32_11.6.0.202112161359/tools/bin/../lib/gcc/arm-none-eabi/10.3.1/../../../../arm-none-eabi/lib/thumb/v7e-m+fp/hard\libcr_c.a(_deferredlazyseek.o) (__sys_istty)
c:/nxp/mcuxpressoide_11.6.0_8187/ide/plugins/com.nxp.mcuxpresso.tools.win32_11.6.0.202112161359/tools/bin/../lib/gcc/arm-none-eabi/10.3.1/../../../../arm-none-eabi/lib/thumb/v7e-m+fp/hard\libcr_nohost_nf.a(__sys_read.o)
                              c:/nxp/mcuxpressoide_11.6.0_8187/ide/plugins/com.nxp.mcuxpresso.tools.win32_11.6.0.202112161359/tools/bin/../lib/gcc/arm-none-eabi/10.3.1/../../../../arm-none-eabi/lib/thumb/v7e-m+fp/hard\libcr_c.a(__fillbuf.o) (__sys_read)
c:/nxp/mcuxpressoide_11.6.0_8187/ide/plugins/com.nxp.mcuxpresso.tools.win32_11.6.0.202112161359/tools/bin/../lib/gcc/arm-none-eabi/10.3.1/../../../../arm-none-eabi/lib/thumb/v7e-m+fp/hard\libcr_nohost_nf.a(__sys_readc.o)
                              c:/nxp/mcuxpressoide_11.6.0_8187/ide/plugins/com.nxp.mcuxpresso.tools.win32_11.6.0.202112161359/tools/bin/../lib/gcc/arm-none-eabi/10.3.1/../../../../arm-none-eabi/lib/thumb/v7e-m+fp/hard\libcr_c.a(__fillbuf.o) (__sys_readc)
c:/nxp/mcuxpressoide_11.6.0_8187/ide/plugins/com.nxp.mcuxpresso.tools.win32_11.6.0.202112161359/tools/bin/../lib/gcc/arm-none-eabi/10.3.1/../../../../arm-none-eabi/lib/thumb/v7e-m+fp/hard\libcr_nohost_nf.a(__sys_remove.o)
                              c:/nxp/mcuxpressoide_11.6.0_8187/ide/plugins/com.nxp.mcuxpresso.tools.win32_11.6.0.202112161359/tools/bin/../lib/gcc/arm-none-eabi/10.3.1/../../../../arm-none-eabi/lib/thumb/v7e-m+fp/hard\libcr_c.a(remove.o) (__sys_remove)
c:/nxp/mcuxpressoide_11.6.0_8187/ide/plugins/com.nxp.mcuxpresso.tools.win32_11.6.0.202112161359/tools/bin/../lib/gcc/arm-none-eabi/10.3.1/../../../../arm-none-eabi/lib/thumb/v7e-m+fp/hard\libcr_nohost_nf.a(__sys_rename.o)
                              c:/nxp/mcuxpressoide_11.6.0_8187/ide/plugins/com.nxp.mcuxpresso.tools.win32_11.6.0.202112161359/tools/bin/../lib/gcc/arm-none-eabi/10.3.1/../../../../arm-none-eabi/lib/thumb/v7e-m+fp/hard\libcr_c.a(remove.o) (__sys_rename)
c:/nxp/mcuxpressoide_11.6.0_8187/ide/plugins/com.nxp.mcuxpresso.tools.win32_11.6.0.202112161359/tools/bin/../lib/gcc/arm-none-eabi/10.3.1/../../../../arm-none-eabi/lib/thumb/v7e-m+fp/hard\libcr_nohost_nf.a(__sys_seek.o)
                              c:/nxp/mcuxpressoide_11.6.0_8187/ide/plugins/com.nxp.mcuxpresso.tools.win32_11.6.0.202112161359/tools/bin/../lib/gcc/arm-none-eabi/10.3.1/../../../../arm-none-eabi/lib/thumb/v7e-m+fp/hard\libcr_c.a(__fillbuf.o) (__sys_seek)
c:/nxp/mcuxpressoide_11.6.0_8187/ide/plugins/com.nxp.mcuxpresso.tools.win32_11.6.0.202112161359/tools/bin/../lib/gcc/arm-none-eabi/10.3.1/../../../../arm-none-eabi/lib/thumb/v7e-m+fp/hard\libcr_nohost_nf.a(__sys_tmpnam.o)
                              c:/nxp/mcuxpressoide_11.6.0_8187/ide/plugins/com.nxp.mcuxpresso.tools.win32_11.6.0.202112161359/tools/bin/../lib/gcc/arm-none-eabi/10.3.1/../../../../arm-none-eabi/lib/thumb/v7e-m+fp/hard\libcr_c.a(fclose.o) (__sys_tmpnam)
c:/nxp/mcuxpressoide_11.6.0_8187/ide/plugins/com.nxp.mcuxpresso.tools.win32_11.6.0.202112161359/tools/bin/../lib/gcc/arm-none-eabi/10.3.1/../../../../arm-none-eabi/lib/thumb/v7e-m+fp/hard\libcr_nohost_nf.a(__sys_write.o)
                              c:/nxp/mcuxpressoide_11.6.0_8187/ide/plugins/com.nxp.mcuxpresso.tools.win32_11.6.0.202112161359/tools/bin/../lib/gcc/arm-none-eabi/10.3.1/../../../../arm-none-eabi/lib/thumb/v7e-m+fp/hard\libcr_c.a(alloc.o) (__sys_write)

Discarded input sections

 .group         0x00000000        0xc ./xip/evkbimxrt1050_flexspi_nor_config.o
 .group         0x00000000        0xc ./xip/evkbimxrt1050_flexspi_nor_config.o
 .group         0x00000000        0xc ./xip/evkbimxrt1050_flexspi_nor_config.o
 .group         0x00000000        0xc ./xip/evkbimxrt1050_flexspi_nor_config.o
 .group         0x00000000        0xc ./xip/evkbimxrt1050_flexspi_nor_config.o
 .group         0x00000000        0xc ./xip/evkbimxrt1050_flexspi_nor_config.o
 .group         0x00000000        0xc ./xip/evkbimxrt1050_flexspi_nor_config.o
 .group         0x00000000        0xc ./xip/evkbimxrt1050_flexspi_nor_config.o
 .group         0x00000000        0xc ./xip/evkbimxrt1050_flexspi_nor_config.o
 .group         0x00000000        0xc ./xip/evkbimxrt1050_flexspi_nor_config.o
 .group         0x00000000        0xc ./xip/evkbimxrt1050_flexspi_nor_config.o
 .group         0x00000000        0xc ./xip/evkbimxrt1050_flexspi_nor_config.o
 .group         0x00000000        0xc ./xip/evkbimxrt1050_flexspi_nor_config.o
 .group         0x00000000        0xc ./xip/evkbimxrt1050_flexspi_nor_config.o
 .group         0x00000000        0xc ./xip/evkbimxrt1050_flexspi_nor_config.o
 .group         0x00000000        0xc ./xip/evkbimxrt1050_flexspi_nor_config.o
 .group         0x00000000        0xc ./xip/evkbimxrt1050_flexspi_nor_config.o
 .group         0x00000000        0xc ./xip/evkbimxrt1050_flexspi_nor_config.o
 .group         0x00000000        0xc ./xip/evkbimxrt1050_flexspi_nor_config.o
 .group         0x00000000        0xc ./xip/evkbimxrt1050_flexspi_nor_config.o
 .group         0x00000000        0xc ./xip/evkbimxrt1050_flexspi_nor_config.o
 .group         0x00000000        0xc ./xip/evkbimxrt1050_flexspi_nor_config.o
 .text          0x00000000        0x0 ./xip/evkbimxrt1050_flexspi_nor_config.o
 .data          0x00000000        0x0 ./xip/evkbimxrt1050_flexspi_nor_config.o
 .bss           0x00000000        0x0 ./xip/evkbimxrt1050_flexspi_nor_config.o
 .group         0x00000000        0xc ./xip/fsl_flexspi_nor_boot.o
 .group         0x00000000        0xc ./xip/fsl_flexspi_nor_boot.o
 .group         0x00000000        0xc ./xip/fsl_flexspi_nor_boot.o
 .group         0x00000000        0xc ./xip/fsl_flexspi_nor_boot.o
 .group         0x00000000        0xc ./xip/fsl_flexspi_nor_boot.o
 .group         0x00000000        0xc ./xip/fsl_flexspi_nor_boot.o
 .group         0x00000000        0xc ./xip/fsl_flexspi_nor_boot.o
 .group         0x00000000        0xc ./xip/fsl_flexspi_nor_boot.o
 .group         0x00000000        0xc ./xip/fsl_flexspi_nor_boot.o
 .group         0x00000000        0xc ./xip/fsl_flexspi_nor_boot.o
 .group         0x00000000        0xc ./xip/fsl_flexspi_nor_boot.o
 .group         0x00000000        0xc ./xip/fsl_flexspi_nor_boot.o
 .group         0x00000000        0xc ./xip/fsl_flexspi_nor_boot.o
 .group         0x00000000        0xc ./xip/fsl_flexspi_nor_boot.o
 .group         0x00000000        0xc ./xip/fsl_flexspi_nor_boot.o
 .group         0x00000000        0xc ./xip/fsl_flexspi_nor_boot.o
 .group         0x00000000        0xc ./xip/fsl_flexspi_nor_boot.o
 .group         0x00000000        0xc ./xip/fsl_flexspi_nor_boot.o
 .group         0x00000000        0xc ./xip/fsl_flexspi_nor_boot.o
 .group         0x00000000        0xc ./xip/fsl_flexspi_nor_boot.o
 .group         0x00000000        0xc ./xip/fsl_flexspi_nor_boot.o
 .group         0x00000000        0xc ./xip/fsl_flexspi_nor_boot.o
 .group         0x00000000        0xc ./xip/fsl_flexspi_nor_boot.o
 .group         0x00000000        0xc ./xip/fsl_flexspi_nor_boot.o
 .group         0x00000000        0xc ./xip/fsl_flexspi_nor_boot.o
 .text          0x00000000        0x0 ./xip/fsl_flexspi_nor_boot.o
 .data          0x00000000        0x0 ./xip/fsl_flexspi_nor_boot.o
 .bss           0x00000000        0x0 ./xip/fsl_flexspi_nor_boot.o
 .debug_macro   0x00000000      0xaba ./xip/fsl_flexspi_nor_boot.o
 .debug_macro   0x00000000       0x10 ./xip/fsl_flexspi_nor_boot.o
 .debug_macro   0x00000000      0x12e ./xip/fsl_flexspi_nor_boot.o
 .debug_macro   0x00000000      0x5b3 ./xip/fsl_flexspi_nor_boot.o
 .debug_macro   0x00000000       0x16 ./xip/fsl_flexspi_nor_boot.o
 .debug_macro   0x00000000       0x22 ./xip/fsl_flexspi_nor_boot.o
 .debug_macro   0x00000000       0x22 ./xip/fsl_flexspi_nor_boot.o
 .debug_macro   0x00000000       0x10 ./xip/fsl_flexspi_nor_boot.o
 .debug_macro   0x00000000       0x4d ./xip/fsl_flexspi_nor_boot.o
 .debug_macro   0x00000000       0x1c ./xip/fsl_flexspi_nor_boot.o
 .debug_macro   0x00000000       0x22 ./xip/fsl_flexspi_nor_boot.o
 .debug_macro   0x00000000       0xfb ./xip/fsl_flexspi_nor_boot.o
 .debug_macro   0x00000000     0x1313 ./xip/fsl_flexspi_nor_boot.o
 .debug_macro   0x00000000      0x11f ./xip/fsl_flexspi_nor_boot.o
 .debug_macro   0x00000000       0x22 ./xip/fsl_flexspi_nor_boot.o
 .debug_macro   0x00000000       0x22 ./xip/fsl_flexspi_nor_boot.o
 .debug_macro   0x00000000    0x24b4c ./xip/fsl_flexspi_nor_boot.o
 .debug_macro   0x00000000      0x841 ./xip/fsl_flexspi_nor_boot.o
 .debug_macro   0x00000000       0x7a ./xip/fsl_flexspi_nor_boot.o
 .debug_macro   0x00000000       0xaf ./xip/fsl_flexspi_nor_boot.o
 .debug_macro   0x00000000      0x24e ./xip/fsl_flexspi_nor_boot.o
 .group         0x00000000        0xc ./utilities/fsl_assert.o
 .group         0x00000000        0xc ./utilities/fsl_assert.o
 .group         0x00000000        0xc ./utilities/fsl_assert.o
 .group         0x00000000        0xc ./utilities/fsl_assert.o
 .group         0x00000000        0xc ./utilities/fsl_assert.o
 .group         0x00000000        0xc ./utilities/fsl_assert.o
 .group         0x00000000        0xc ./utilities/fsl_assert.o
 .group         0x00000000        0xc ./utilities/fsl_assert.o
 .group         0x00000000        0xc ./utilities/fsl_assert.o
 .group         0x00000000        0xc ./utilities/fsl_assert.o
 .group         0x00000000        0xc ./utilities/fsl_assert.o
 .group         0x00000000        0xc ./utilities/fsl_assert.o
 .group         0x00000000        0xc ./utilities/fsl_assert.o
 .group         0x00000000        0xc ./utilities/fsl_assert.o
 .group         0x00000000        0xc ./utilities/fsl_assert.o
 .group         0x00000000        0xc ./utilities/fsl_assert.o
 .group         0x00000000        0xc ./utilities/fsl_assert.o
 .group         0x00000000        0xc ./utilities/fsl_assert.o
 .group         0x00000000        0xc ./utilities/fsl_assert.o
 .group         0x00000000        0xc ./utilities/fsl_assert.o
 .group         0x00000000        0xc ./utilities/fsl_assert.o
 .group         0x00000000        0xc ./utilities/fsl_assert.o
 .group         0x00000000        0xc ./utilities/fsl_assert.o
 .group         0x00000000        0xc ./utilities/fsl_assert.o
 .group         0x00000000        0xc ./utilities/fsl_assert.o
 .group         0x00000000        0xc ./utilities/fsl_assert.o
 .group         0x00000000        0xc ./utilities/fsl_assert.o
 .group         0x00000000        0xc ./utilities/fsl_assert.o
 .text          0x00000000        0x0 ./utilities/fsl_assert.o
 .data          0x00000000        0x0 ./utilities/fsl_assert.o
 .bss           0x00000000        0x0 ./utilities/fsl_assert.o
 .debug_macro   0x00000000      0xaba ./utilities/fsl_assert.o
 .debug_macro   0x00000000       0x10 ./utilities/fsl_assert.o
 .debug_macro   0x00000000       0x22 ./utilities/fsl_assert.o
 .debug_macro   0x00000000      0x12e ./utilities/fsl_assert.o
 .debug_macro   0x00000000      0x5b3 ./utilities/fsl_assert.o
 .debug_macro   0x00000000       0x22 ./utilities/fsl_assert.o
 .debug_macro   0x00000000       0x10 ./utilities/fsl_assert.o
 .debug_macro   0x00000000       0x4d ./utilities/fsl_assert.o
 .debug_macro   0x00000000       0x1c ./utilities/fsl_assert.o
 .debug_macro   0x00000000       0x22 ./utilities/fsl_assert.o
 .debug_macro   0x00000000       0xfb ./utilities/fsl_assert.o
 .debug_macro   0x00000000     0x1313 ./utilities/fsl_assert.o
 .debug_macro   0x00000000      0x11f ./utilities/fsl_assert.o
 .debug_macro   0x00000000       0x22 ./utilities/fsl_assert.o
 .debug_macro   0x00000000       0x22 ./utilities/fsl_assert.o
 .debug_macro   0x00000000    0x24b4c ./utilities/fsl_assert.o
 .debug_macro   0x00000000      0x841 ./utilities/fsl_assert.o
 .debug_macro   0x00000000       0x7a ./utilities/fsl_assert.o
 .debug_macro   0x00000000       0xaf ./utilities/fsl_assert.o
 .debug_macro   0x00000000      0x24e ./utilities/fsl_assert.o
 .group         0x00000000        0xc ./utilities/fsl_debug_console.o
 .group         0x00000000        0xc ./utilities/fsl_debug_console.o
 .group         0x00000000        0xc ./utilities/fsl_debug_console.o
 .group         0x00000000        0xc ./utilities/fsl_debug_console.o
 .group         0x00000000        0xc ./utilities/fsl_debug_console.o
 .group         0x00000000        0xc ./utilities/fsl_debug_console.o
 .group         0x00000000        0xc ./utilities/fsl_debug_console.o
 .group         0x00000000        0xc ./utilities/fsl_debug_console.o
 .group         0x00000000        0xc ./utilities/fsl_debug_console.o
 .group         0x00000000        0xc ./utilities/fsl_debug_console.o
 .group         0x00000000        0xc ./utilities/fsl_debug_console.o
 .group         0x00000000        0xc ./utilities/fsl_debug_console.o
 .group         0x00000000        0xc ./utilities/fsl_debug_console.o
 .group         0x00000000        0xc ./utilities/fsl_debug_console.o
 .group         0x00000000        0xc ./utilities/fsl_debug_console.o
 .group         0x00000000        0xc ./utilities/fsl_debug_console.o
 .group         0x00000000        0xc ./utilities/fsl_debug_console.o
 .group         0x00000000        0xc ./utilities/fsl_debug_console.o
 .group         0x00000000        0xc ./utilities/fsl_debug_console.o
 .group         0x00000000        0xc ./utilities/fsl_debug_console.o
 .group         0x00000000        0xc ./utilities/fsl_debug_console.o
 .group         0x00000000        0xc ./utilities/fsl_debug_console.o
 .group         0x00000000        0xc ./utilities/fsl_debug_console.o
 .group         0x00000000        0xc ./utilities/fsl_debug_console.o
 .group         0x00000000        0xc ./utilities/fsl_debug_console.o
 .group         0x00000000        0xc ./utilities/fsl_debug_console.o
 .group         0x00000000        0xc ./utilities/fsl_debug_console.o
 .group         0x00000000        0xc ./utilities/fsl_debug_console.o
 .group         0x00000000        0xc ./utilities/fsl_debug_console.o
 .group         0x00000000        0xc ./utilities/fsl_debug_console.o
 .text          0x00000000        0x0 ./utilities/fsl_debug_console.o
 .data          0x00000000        0x0 ./utilities/fsl_debug_console.o
 .bss           0x00000000        0x0 ./utilities/fsl_debug_console.o
 .text.DbgConsole_ReadOneCharacter
                0x00000000       0x44 ./utilities/fsl_debug_console.o
 .text.DbgConsole_SendData
                0x00000000       0x40 ./utilities/fsl_debug_console.o
 .text.DbgConsole_ReadLine
                0x00000000       0xa8 ./utilities/fsl_debug_console.o
 .text.DbgConsole_ReadCharacter
                0x00000000       0x44 ./utilities/fsl_debug_console.o
 .text.DbgConsole_EnterLowpower
                0x00000000       0x30 ./utilities/fsl_debug_console.o
 .text.DbgConsole_ExitLowpower
                0x00000000       0x30 ./utilities/fsl_debug_console.o
 .text.DbgConsole_Deinit
                0x00000000       0x64 ./utilities/fsl_debug_console.o
 .text.DbgConsole_Flush
                0x00000000       0x10 ./utilities/fsl_debug_console.o
 .text.DbgConsole_Putchar
                0x00000000       0x1c ./utilities/fsl_debug_console.o
 .text.DbgConsole_Scanf
                0x00000000       0x48 ./utilities/fsl_debug_console.o
 .text.DbgConsole_BlockingPrintf
                0x00000000       0x2c ./utilities/fsl_debug_console.o
 .text.DbgConsole_BlockingVprintf
                0x00000000       0x8c ./utilities/fsl_debug_console.o
 .text.DbgConsole_Getchar
                0x00000000       0x2c ./utilities/fsl_debug_console.o
 .debug_macro   0x00000000      0xaba ./utilities/fsl_debug_console.o
 .debug_macro   0x00000000       0x10 ./utilities/fsl_debug_console.o
 .debug_macro   0x00000000      0x12e ./utilities/fsl_debug_console.o
 .debug_macro   0x00000000       0x16 ./utilities/fsl_debug_console.o
 .debug_macro   0x00000000       0x22 ./utilities/fsl_debug_console.o
 .debug_macro   0x00000000      0x5b3 ./utilities/fsl_debug_console.o
 .debug_macro   0x00000000       0x10 ./utilities/fsl_debug_console.o
 .debug_macro   0x00000000       0x4d ./utilities/fsl_debug_console.o
 .debug_macro   0x00000000       0x1c ./utilities/fsl_debug_console.o
 .debug_macro   0x00000000       0x22 ./utilities/fsl_debug_console.o
 .debug_macro   0x00000000       0xfb ./utilities/fsl_debug_console.o
 .debug_macro   0x00000000     0x1313 ./utilities/fsl_debug_console.o
 .debug_macro   0x00000000      0x11f ./utilities/fsl_debug_console.o
 .debug_macro   0x00000000       0x22 ./utilities/fsl_debug_console.o
 .debug_macro   0x00000000       0x22 ./utilities/fsl_debug_console.o
 .debug_macro   0x00000000    0x24b4c ./utilities/fsl_debug_console.o
 .debug_macro   0x00000000      0x841 ./utilities/fsl_debug_console.o
 .debug_macro   0x00000000       0x7a ./utilities/fsl_debug_console.o
 .debug_macro   0x00000000       0xaf ./utilities/fsl_debug_console.o
 .debug_macro   0x00000000      0x24e ./utilities/fsl_debug_console.o
 .debug_macro   0x00000000       0x70 ./utilities/fsl_debug_console.o
 .debug_macro   0x00000000       0x46 ./utilities/fsl_debug_console.o
 .debug_macro   0x00000000       0x16 ./utilities/fsl_debug_console.o
 .debug_macro   0x00000000       0x6d ./utilities/fsl_debug_console.o
 .debug_macro   0x00000000       0x1c ./utilities/fsl_debug_console.o
 .group         0x00000000        0xc ./utilities/fsl_str.o
 .group         0x00000000        0xc ./utilities/fsl_str.o
 .group         0x00000000        0xc ./utilities/fsl_str.o
 .group         0x00000000        0xc ./utilities/fsl_str.o
 .group         0x00000000        0xc ./utilities/fsl_str.o
 .group         0x00000000        0xc ./utilities/fsl_str.o
 .group         0x00000000        0xc ./utilities/fsl_str.o
 .group         0x00000000        0xc ./utilities/fsl_str.o
 .group         0x00000000        0xc ./utilities/fsl_str.o
 .group         0x00000000        0xc ./utilities/fsl_str.o
 .group         0x00000000        0xc ./utilities/fsl_str.o
 .group         0x00000000        0xc ./utilities/fsl_str.o
 .group         0x00000000        0xc ./utilities/fsl_str.o
 .group         0x00000000        0xc ./utilities/fsl_str.o
 .group         0x00000000        0xc ./utilities/fsl_str.o
 .group         0x00000000        0xc ./utilities/fsl_str.o
 .group         0x00000000        0xc ./utilities/fsl_str.o
 .group         0x00000000        0xc ./utilities/fsl_str.o
 .group         0x00000000        0xc ./utilities/fsl_str.o
 .group         0x00000000        0xc ./utilities/fsl_str.o
 .group         0x00000000        0xc ./utilities/fsl_str.o
 .group         0x00000000        0xc ./utilities/fsl_str.o
 .group         0x00000000        0xc ./utilities/fsl_str.o
 .group         0x00000000        0xc ./utilities/fsl_str.o
 .group         0x00000000        0xc ./utilities/fsl_str.o
 .text          0x00000000        0x0 ./utilities/fsl_str.o
 .data          0x00000000        0x0 ./utilities/fsl_str.o
 .bss           0x00000000        0x0 ./utilities/fsl_str.o
 .text.ScanIsWhiteSpace
                0x00000000       0x44 ./utilities/fsl_str.o
 .text.ScanIgnoreWhiteSpace
                0x00000000       0x46 ./utilities/fsl_str.o
 .text.StrFormatScanIsFormatStarting
                0x00000000       0x36 ./utilities/fsl_str.o
 .text.StrFormatScanGetBase
                0x00000000       0x4c ./utilities/fsl_str.o
 .text.StrFormatScanCheckSymbol
                0x00000000       0x48 ./utilities/fsl_str.o
 .text.StrFormatScanFillInteger
                0x00000000       0x46 ./utilities/fsl_str.o
 .text.StrFormatScanfStringHandling
                0x00000000      0x188 ./utilities/fsl_str.o
 .text.StrFormatScanf
                0x00000000      0x2dc ./utilities/fsl_str.o
 .debug_macro   0x00000000      0xaba ./utilities/fsl_str.o
 .debug_macro   0x00000000       0x10 ./utilities/fsl_str.o
 .debug_macro   0x00000000       0x1c ./utilities/fsl_str.o
 .debug_macro   0x00000000      0x12e ./utilities/fsl_str.o
 .debug_macro   0x00000000       0x28 ./utilities/fsl_str.o
 .debug_macro   0x00000000       0x16 ./utilities/fsl_str.o
 .debug_macro   0x00000000       0x22 ./utilities/fsl_str.o
 .debug_macro   0x00000000      0x5b3 ./utilities/fsl_str.o
 .debug_macro   0x00000000       0x10 ./utilities/fsl_str.o
 .debug_macro   0x00000000       0x4d ./utilities/fsl_str.o
 .debug_macro   0x00000000       0x1c ./utilities/fsl_str.o
 .debug_macro   0x00000000       0x22 ./utilities/fsl_str.o
 .debug_macro   0x00000000       0xfb ./utilities/fsl_str.o
 .debug_macro   0x00000000     0x1313 ./utilities/fsl_str.o
 .debug_macro   0x00000000      0x11f ./utilities/fsl_str.o
 .debug_macro   0x00000000       0x22 ./utilities/fsl_str.o
 .debug_macro   0x00000000       0x22 ./utilities/fsl_str.o
 .debug_macro   0x00000000    0x24b4c ./utilities/fsl_str.o
 .debug_macro   0x00000000      0x841 ./utilities/fsl_str.o
 .debug_macro   0x00000000       0x7a ./utilities/fsl_str.o
 .debug_macro   0x00000000       0xaf ./utilities/fsl_str.o
 .debug_macro   0x00000000      0x24e ./utilities/fsl_str.o
 .group         0x00000000        0xc ./startup/startup_mimxrt1052.o
 .text          0x00000000        0x0 ./startup/startup_mimxrt1052.o
 .data          0x00000000        0x0 ./startup/startup_mimxrt1052.o
 .bss           0x00000000        0x0 ./startup/startup_mimxrt1052.o
 .debug_macro   0x00000000      0xaba ./startup/startup_mimxrt1052.o
 .group         0x00000000        0xc ./source/MIMXRT1052_Project.o
 .group         0x00000000        0xc ./source/MIMXRT1052_Project.o
 .group         0x00000000        0xc ./source/MIMXRT1052_Project.o
 .group         0x00000000        0xc ./source/MIMXRT1052_Project.o
 .group         0x00000000        0xc ./source/MIMXRT1052_Project.o
 .group         0x00000000        0xc ./source/MIMXRT1052_Project.o
 .group         0x00000000        0xc ./source/MIMXRT1052_Project.o
 .group         0x00000000        0xc ./source/MIMXRT1052_Project.o
 .group         0x00000000        0xc ./source/MIMXRT1052_Project.o
 .group         0x00000000        0xc ./source/MIMXRT1052_Project.o
 .group         0x00000000        0xc ./source/MIMXRT1052_Project.o
 .group         0x00000000        0xc ./source/MIMXRT1052_Project.o
 .group         0x00000000        0xc ./source/MIMXRT1052_Project.o
 .group         0x00000000        0xc ./source/MIMXRT1052_Project.o
 .group         0x00000000        0xc ./source/MIMXRT1052_Project.o
 .group         0x00000000        0xc ./source/MIMXRT1052_Project.o
 .group         0x00000000        0xc ./source/MIMXRT1052_Project.o
 .group         0x00000000        0xc ./source/MIMXRT1052_Project.o
 .group         0x00000000        0xc ./source/MIMXRT1052_Project.o
 .group         0x00000000        0xc ./source/MIMXRT1052_Project.o
 .group         0x00000000        0xc ./source/MIMXRT1052_Project.o
 .group         0x00000000        0xc ./source/MIMXRT1052_Project.o
 .group         0x00000000        0xc ./source/MIMXRT1052_Project.o
 .group         0x00000000        0xc ./source/MIMXRT1052_Project.o
 .group         0x00000000        0xc ./source/MIMXRT1052_Project.o
 .group         0x00000000        0xc ./source/MIMXRT1052_Project.o
 .group         0x00000000        0xc ./source/MIMXRT1052_Project.o
 .group         0x00000000        0xc ./source/MIMXRT1052_Project.o
 .group         0x00000000        0xc ./source/MIMXRT1052_Project.o
 .group         0x00000000        0xc ./source/MIMXRT1052_Project.o
 .group         0x00000000        0xc ./source/MIMXRT1052_Project.o
 .group         0x00000000        0xc ./source/MIMXRT1052_Project.o
 .group         0x00000000        0xc ./source/MIMXRT1052_Project.o
 .text          0x00000000        0x0 ./source/MIMXRT1052_Project.o
 .data          0x00000000        0x0 ./source/MIMXRT1052_Project.o
 .bss           0x00000000        0x0 ./source/MIMXRT1052_Project.o
 .debug_macro   0x00000000      0xaba ./source/MIMXRT1052_Project.o
 .debug_macro   0x00000000       0x10 ./source/MIMXRT1052_Project.o
 .debug_macro   0x00000000      0x12e ./source/MIMXRT1052_Project.o
 .debug_macro   0x00000000       0x16 ./source/MIMXRT1052_Project.o
 .debug_macro   0x00000000       0x22 ./source/MIMXRT1052_Project.o
 .debug_macro   0x00000000      0x5b3 ./source/MIMXRT1052_Project.o
 .debug_macro   0x00000000       0x22 ./source/MIMXRT1052_Project.o
 .debug_macro   0x00000000       0x10 ./source/MIMXRT1052_Project.o
 .debug_macro   0x00000000       0x4d ./source/MIMXRT1052_Project.o
 .debug_macro   0x00000000       0x1c ./source/MIMXRT1052_Project.o
 .debug_macro   0x00000000       0x22 ./source/MIMXRT1052_Project.o
 .debug_macro   0x00000000       0xfb ./source/MIMXRT1052_Project.o
 .debug_macro   0x00000000     0x1313 ./source/MIMXRT1052_Project.o
 .debug_macro   0x00000000      0x11f ./source/MIMXRT1052_Project.o
 .debug_macro   0x00000000       0x22 ./source/MIMXRT1052_Project.o
 .debug_macro   0x00000000       0x22 ./source/MIMXRT1052_Project.o
 .debug_macro   0x00000000    0x24b4c ./source/MIMXRT1052_Project.o
 .debug_macro   0x00000000      0x841 ./source/MIMXRT1052_Project.o
 .debug_macro   0x00000000       0x7a ./source/MIMXRT1052_Project.o
 .debug_macro   0x00000000       0xaf ./source/MIMXRT1052_Project.o
 .debug_macro   0x00000000      0x24e ./source/MIMXRT1052_Project.o
 .debug_macro   0x00000000       0x10 ./source/MIMXRT1052_Project.o
 .debug_macro   0x00000000      0x16c ./source/MIMXRT1052_Project.o
 .debug_macro   0x00000000       0x70 ./source/MIMXRT1052_Project.o
 .debug_macro   0x00000000       0x46 ./source/MIMXRT1052_Project.o
 .debug_macro   0x00000000       0x16 ./source/MIMXRT1052_Project.o
 .debug_macro   0x00000000       0x6d ./source/MIMXRT1052_Project.o
 .debug_macro   0x00000000       0x16 ./source/MIMXRT1052_Project.o
 .debug_macro   0x00000000       0x1c ./source/MIMXRT1052_Project.o
 .debug_macro   0x00000000       0x1c ./source/MIMXRT1052_Project.o
 .group         0x00000000        0xc ./source/semihost_hardfault.o
 .text          0x00000000        0x0 ./source/semihost_hardfault.o
 .data          0x00000000        0x0 ./source/semihost_hardfault.o
 .bss           0x00000000        0x0 ./source/semihost_hardfault.o
 .debug_macro   0x00000000      0xaba ./source/semihost_hardfault.o
 .group         0x00000000        0xc ./drivers/fsl_clock.o
 .group         0x00000000        0xc ./drivers/fsl_clock.o
 .group         0x00000000        0xc ./drivers/fsl_clock.o
 .group         0x00000000        0xc ./drivers/fsl_clock.o
 .group         0x00000000        0xc ./drivers/fsl_clock.o
 .group         0x00000000        0xc ./drivers/fsl_clock.o
 .group         0x00000000        0xc ./drivers/fsl_clock.o
 .group         0x00000000        0xc ./drivers/fsl_clock.o
 .group         0x00000000        0xc ./drivers/fsl_clock.o
 .group         0x00000000        0xc ./drivers/fsl_clock.o
 .group         0x00000000        0xc ./drivers/fsl_clock.o
 .group         0x00000000        0xc ./drivers/fsl_clock.o
 .group         0x00000000        0xc ./drivers/fsl_clock.o
 .group         0x00000000        0xc ./drivers/fsl_clock.o
 .group         0x00000000        0xc ./drivers/fsl_clock.o
 .group         0x00000000        0xc ./drivers/fsl_clock.o
 .group         0x00000000        0xc ./drivers/fsl_clock.o
 .group         0x00000000        0xc ./drivers/fsl_clock.o
 .group         0x00000000        0xc ./drivers/fsl_clock.o
 .group         0x00000000        0xc ./drivers/fsl_clock.o
 .group         0x00000000        0xc ./drivers/fsl_clock.o
 .text          0x00000000        0x0 ./drivers/fsl_clock.o
 .data          0x00000000        0x0 ./drivers/fsl_clock.o
 .bss           0x00000000        0x0 ./drivers/fsl_clock.o
 .text.CLOCK_GetRtcFreq
                0x00000000       0x12 ./drivers/fsl_clock.o
 .text.CLOCK_GetPeriphClkFreq
                0x00000000       0xec ./drivers/fsl_clock.o
 .text.CLOCK_GetPllUsb1SWFreq
                0x00000000       0x44 ./drivers/fsl_clock.o
 .text.CLOCK_DeinitExternalClk
                0x00000000       0x1c ./drivers/fsl_clock.o
 .text.CLOCK_DeinitRcOsc24M
                0x00000000       0x24 ./drivers/fsl_clock.o
 .text.CLOCK_GetAhbFreq
                0x00000000       0x24 ./drivers/fsl_clock.o
 .text.CLOCK_GetSemcFreq
                0x00000000       0x5c ./drivers/fsl_clock.o
 .text.CLOCK_GetIpgFreq
                0x00000000       0x24 ./drivers/fsl_clock.o
 .text.CLOCK_GetPerClkFreq
                0x00000000       0x40 ./drivers/fsl_clock.o
 .text.CLOCK_GetFreq
                0x00000000      0x1b8 ./drivers/fsl_clock.o
 .rodata.CLOCK_GetClockRootFreq.str1.4
                0x00000000       0x35 ./drivers/fsl_clock.o
 .text.CLOCK_GetClockRootFreq
                0x00000000      0x118 ./drivers/fsl_clock.o
 .text.CLOCK_EnableUsbhs0Clock
                0x00000000       0x7c ./drivers/fsl_clock.o
 .text.CLOCK_EnableUsbhs1Clock
                0x00000000       0x80 ./drivers/fsl_clock.o
 .text.CLOCK_EnableUsbhs0PhyPllClock
                0x00000000       0x6c ./drivers/fsl_clock.o
 .text.CLOCK_DisableUsbhs0PhyPllClock
                0x00000000       0x30 ./drivers/fsl_clock.o
 .text.CLOCK_DeinitArmPll
                0x00000000       0x1c ./drivers/fsl_clock.o
 .text.CLOCK_DeinitSysPll
                0x00000000       0x1c ./drivers/fsl_clock.o
 .text.CLOCK_InitUsb1Pll
                0x00000000       0x68 ./drivers/fsl_clock.o
 .text.CLOCK_DeinitUsb1Pll
                0x00000000       0x18 ./drivers/fsl_clock.o
 .text.CLOCK_InitUsb2Pll
                0x00000000       0x68 ./drivers/fsl_clock.o
 .text.CLOCK_InitAudioPll
                0x00000000      0x12c ./drivers/fsl_clock.o
 .text.CLOCK_InitVideoPll
                0x00000000      0x134 ./drivers/fsl_clock.o
 .text.CLOCK_DeinitVideoPll
                0x00000000       0x1c ./drivers/fsl_clock.o
 .text.CLOCK_InitEnetPll
                0x00000000       0x94 ./drivers/fsl_clock.o
 .text.CLOCK_DeinitSysPfd
                0x00000000       0x34 ./drivers/fsl_clock.o
 .text.CLOCK_IsSysPfdEnabled
                0x00000000       0x38 ./drivers/fsl_clock.o
 .text.CLOCK_InitUsb1Pfd
                0x00000000       0x64 ./drivers/fsl_clock.o
 .text.CLOCK_DeinitUsb1Pfd
                0x00000000       0x34 ./drivers/fsl_clock.o
 .text.CLOCK_IsUsb1PfdEnabled
                0x00000000       0x38 ./drivers/fsl_clock.o
 .text.CLOCK_GetSysPfdFreq
                0x00000000       0xac ./drivers/fsl_clock.o
 .text.CLOCK_GetUsb1PfdFreq
                0x00000000       0xac ./drivers/fsl_clock.o
 .text.CLOCK_EnableUsbhs1PhyPllClock
                0x00000000       0x50 ./drivers/fsl_clock.o
 .text.CLOCK_DisableUsbhs1PhyPllClock
                0x00000000       0x30 ./drivers/fsl_clock.o
 .text.CLOCK_SetClockOutput1
                0x00000000       0x64 ./drivers/fsl_clock.o
 .text.CLOCK_SetClockOutput2
                0x00000000       0x64 ./drivers/fsl_clock.o
 .text.CLOCK_GetClockOutCLKO1Freq
                0x00000000      0x10c ./drivers/fsl_clock.o
 .text.CLOCK_GetClockOutClkO2Freq
                0x00000000      0x13c ./drivers/fsl_clock.o
 .rodata.clockRootMuxTupleArray.5
                0x00000000       0x40 ./drivers/fsl_clock.o
 .rodata.clockRootDivTupleArray.4
                0x00000000       0x80 ./drivers/fsl_clock.o
 .rodata.clockRootSourceArray.3
                0x00000000       0x60 ./drivers/fsl_clock.o
 .rodata.g_ccmConfigUsbPll.2
                0x00000000        0x2 ./drivers/fsl_clock.o
 .rodata.g_ccmConfigUsbPll.0
                0x00000000        0x2 ./drivers/fsl_clock.o
 .debug_macro   0x00000000      0xaba ./drivers/fsl_clock.o
 .debug_macro   0x00000000       0x10 ./drivers/fsl_clock.o
 .debug_macro   0x00000000       0x1c ./drivers/fsl_clock.o
 .debug_macro   0x00000000       0x22 ./drivers/fsl_clock.o
 .debug_macro   0x00000000      0x12e ./drivers/fsl_clock.o
 .debug_macro   0x00000000      0x5b3 ./drivers/fsl_clock.o
 .debug_macro   0x00000000       0x22 ./drivers/fsl_clock.o
 .debug_macro   0x00000000       0x10 ./drivers/fsl_clock.o
 .debug_macro   0x00000000       0x4d ./drivers/fsl_clock.o
 .debug_macro   0x00000000       0x1c ./drivers/fsl_clock.o
 .debug_macro   0x00000000       0x22 ./drivers/fsl_clock.o
 .debug_macro   0x00000000       0xfb ./drivers/fsl_clock.o
 .debug_macro   0x00000000     0x1313 ./drivers/fsl_clock.o
 .debug_macro   0x00000000      0x11f ./drivers/fsl_clock.o
 .debug_macro   0x00000000       0x22 ./drivers/fsl_clock.o
 .debug_macro   0x00000000       0x22 ./drivers/fsl_clock.o
 .debug_macro   0x00000000    0x24b4c ./drivers/fsl_clock.o
 .debug_macro   0x00000000      0x841 ./drivers/fsl_clock.o
 .debug_macro   0x00000000       0x7a ./drivers/fsl_clock.o
 .debug_macro   0x00000000       0xaf ./drivers/fsl_clock.o
 .debug_macro   0x00000000      0x24e ./drivers/fsl_clock.o
 .group         0x00000000        0xc ./drivers/fsl_common.o
 .group         0x00000000        0xc ./drivers/fsl_common.o
 .group         0x00000000        0xc ./drivers/fsl_common.o
 .group         0x00000000        0xc ./drivers/fsl_common.o
 .group         0x00000000        0xc ./drivers/fsl_common.o
 .group         0x00000000        0xc ./drivers/fsl_common.o
 .group         0x00000000        0xc ./drivers/fsl_common.o
 .group         0x00000000        0xc ./drivers/fsl_common.o
 .group         0x00000000        0xc ./drivers/fsl_common.o
 .group         0x00000000        0xc ./drivers/fsl_common.o
 .group         0x00000000        0xc ./drivers/fsl_common.o
 .group         0x00000000        0xc ./drivers/fsl_common.o
 .group         0x00000000        0xc ./drivers/fsl_common.o
 .group         0x00000000        0xc ./drivers/fsl_common.o
 .group         0x00000000        0xc ./drivers/fsl_common.o
 .group         0x00000000        0xc ./drivers/fsl_common.o
 .group         0x00000000        0xc ./drivers/fsl_common.o
 .group         0x00000000        0xc ./drivers/fsl_common.o
 .group         0x00000000        0xc ./drivers/fsl_common.o
 .group         0x00000000        0xc ./drivers/fsl_common.o
 .group         0x00000000        0xc ./drivers/fsl_common.o
 .text          0x00000000        0x0 ./drivers/fsl_common.o
 .data          0x00000000        0x0 ./drivers/fsl_common.o
 .bss           0x00000000        0x0 ./drivers/fsl_common.o
 .text.SDK_Malloc
                0x00000000       0x92 ./drivers/fsl_common.o
 .text.SDK_Free
                0x00000000       0x3a ./drivers/fsl_common.o
 .debug_info    0x00000000      0x1dc ./drivers/fsl_common.o
 .debug_abbrev  0x00000000       0xf7 ./drivers/fsl_common.o
 .debug_aranges
                0x00000000       0x28 ./drivers/fsl_common.o
 .debug_ranges  0x00000000       0x18 ./drivers/fsl_common.o
 .debug_macro   0x00000000      0x133 ./drivers/fsl_common.o
 .debug_macro   0x00000000      0xaba ./drivers/fsl_common.o
 .debug_macro   0x00000000       0x10 ./drivers/fsl_common.o
 .debug_macro   0x00000000       0x1c ./drivers/fsl_common.o
 .debug_macro   0x00000000       0x22 ./drivers/fsl_common.o
 .debug_macro   0x00000000      0x12e ./drivers/fsl_common.o
 .debug_macro   0x00000000      0x5b3 ./drivers/fsl_common.o
 .debug_macro   0x00000000       0x22 ./drivers/fsl_common.o
 .debug_macro   0x00000000       0x10 ./drivers/fsl_common.o
 .debug_macro   0x00000000       0x4d ./drivers/fsl_common.o
 .debug_macro   0x00000000       0x1c ./drivers/fsl_common.o
 .debug_macro   0x00000000       0x22 ./drivers/fsl_common.o
 .debug_macro   0x00000000       0xfb ./drivers/fsl_common.o
 .debug_macro   0x00000000     0x1313 ./drivers/fsl_common.o
 .debug_macro   0x00000000      0x11f ./drivers/fsl_common.o
 .debug_macro   0x00000000       0x22 ./drivers/fsl_common.o
 .debug_macro   0x00000000       0x22 ./drivers/fsl_common.o
 .debug_macro   0x00000000    0x24b4c ./drivers/fsl_common.o
 .debug_macro   0x00000000      0x841 ./drivers/fsl_common.o
 .debug_macro   0x00000000       0x7a ./drivers/fsl_common.o
 .debug_macro   0x00000000       0xaf ./drivers/fsl_common.o
 .debug_macro   0x00000000      0x24e ./drivers/fsl_common.o
 .debug_line    0x00000000      0x404 ./drivers/fsl_common.o
 .debug_str     0x00000000   0x1406ef ./drivers/fsl_common.o
 .comment       0x00000000       0x4a ./drivers/fsl_common.o
 .debug_frame   0x00000000       0x58 ./drivers/fsl_common.o
 .ARM.attributes
                0x00000000       0x34 ./drivers/fsl_common.o
 .group         0x00000000        0xc ./drivers/fsl_common_arm.o
 .group         0x00000000        0xc ./drivers/fsl_common_arm.o
 .group         0x00000000        0xc ./drivers/fsl_common_arm.o
 .group         0x00000000        0xc ./drivers/fsl_common_arm.o
 .group         0x00000000        0xc ./drivers/fsl_common_arm.o
 .group         0x00000000        0xc ./drivers/fsl_common_arm.o
 .group         0x00000000        0xc ./drivers/fsl_common_arm.o
 .group         0x00000000        0xc ./drivers/fsl_common_arm.o
 .group         0x00000000        0xc ./drivers/fsl_common_arm.o
 .group         0x00000000        0xc ./drivers/fsl_common_arm.o
 .group         0x00000000        0xc ./drivers/fsl_common_arm.o
 .group         0x00000000        0xc ./drivers/fsl_common_arm.o
 .group         0x00000000        0xc ./drivers/fsl_common_arm.o
 .group         0x00000000        0xc ./drivers/fsl_common_arm.o
 .group         0x00000000        0xc ./drivers/fsl_common_arm.o
 .group         0x00000000        0xc ./drivers/fsl_common_arm.o
 .group         0x00000000        0xc ./drivers/fsl_common_arm.o
 .group         0x00000000        0xc ./drivers/fsl_common_arm.o
 .group         0x00000000        0xc ./drivers/fsl_common_arm.o
 .group         0x00000000        0xc ./drivers/fsl_common_arm.o
 .group         0x00000000        0xc ./drivers/fsl_common_arm.o
 .text          0x00000000        0x0 ./drivers/fsl_common_arm.o
 .data          0x00000000        0x0 ./drivers/fsl_common_arm.o
 .bss           0x00000000        0x0 ./drivers/fsl_common_arm.o
 .text.DelayLoop
                0x00000000       0x20 ./drivers/fsl_common_arm.o
 .rodata.SDK_DelayAtLeastUs.str1.4
                0x00000000       0x2b ./drivers/fsl_common_arm.o
 .text.SDK_DelayAtLeastUs
                0x00000000       0x94 ./drivers/fsl_common_arm.o
 .debug_info    0x00000000       0xf5 ./drivers/fsl_common_arm.o
 .debug_abbrev  0x00000000       0x92 ./drivers/fsl_common_arm.o
 .debug_aranges
                0x00000000       0x28 ./drivers/fsl_common_arm.o
 .debug_ranges  0x00000000       0x18 ./drivers/fsl_common_arm.o
 .debug_macro   0x00000000      0x12d ./drivers/fsl_common_arm.o
 .debug_macro   0x00000000      0xaba ./drivers/fsl_common_arm.o
 .debug_macro   0x00000000       0x10 ./drivers/fsl_common_arm.o
 .debug_macro   0x00000000       0x1c ./drivers/fsl_common_arm.o
 .debug_macro   0x00000000       0x22 ./drivers/fsl_common_arm.o
 .debug_macro   0x00000000      0x12e ./drivers/fsl_common_arm.o
 .debug_macro   0x00000000      0x5b3 ./drivers/fsl_common_arm.o
 .debug_macro   0x00000000       0x22 ./drivers/fsl_common_arm.o
 .debug_macro   0x00000000       0x10 ./drivers/fsl_common_arm.o
 .debug_macro   0x00000000       0x4d ./drivers/fsl_common_arm.o
 .debug_macro   0x00000000       0x1c ./drivers/fsl_common_arm.o
 .debug_macro   0x00000000       0x22 ./drivers/fsl_common_arm.o
 .debug_macro   0x00000000       0xfb ./drivers/fsl_common_arm.o
 .debug_macro   0x00000000     0x1313 ./drivers/fsl_common_arm.o
 .debug_macro   0x00000000      0x11f ./drivers/fsl_common_arm.o
 .debug_macro   0x00000000       0x22 ./drivers/fsl_common_arm.o
 .debug_macro   0x00000000       0x22 ./drivers/fsl_common_arm.o
 .debug_macro   0x00000000    0x24b4c ./drivers/fsl_common_arm.o
 .debug_macro   0x00000000      0x841 ./drivers/fsl_common_arm.o
 .debug_macro   0x00000000       0x7a ./drivers/fsl_common_arm.o
 .debug_macro   0x00000000       0xaf ./drivers/fsl_common_arm.o
 .debug_macro   0x00000000      0x24e ./drivers/fsl_common_arm.o
 .debug_line    0x00000000      0x3ba ./drivers/fsl_common_arm.o
 .debug_str     0x00000000   0x140660 ./drivers/fsl_common_arm.o
 .comment       0x00000000       0x4a ./drivers/fsl_common_arm.o
 .debug_frame   0x00000000       0x68 ./drivers/fsl_common_arm.o
 .ARM.attributes
                0x00000000       0x34 ./drivers/fsl_common_arm.o
 .group         0x00000000        0xc ./drivers/fsl_gpio.o
 .group         0x00000000        0xc ./drivers/fsl_gpio.o
 .group         0x00000000        0xc ./drivers/fsl_gpio.o
 .group         0x00000000        0xc ./drivers/fsl_gpio.o
 .group         0x00000000        0xc ./drivers/fsl_gpio.o
 .group         0x00000000        0xc ./drivers/fsl_gpio.o
 .group         0x00000000        0xc ./drivers/fsl_gpio.o
 .group         0x00000000        0xc ./drivers/fsl_gpio.o
 .group         0x00000000        0xc ./drivers/fsl_gpio.o
 .group         0x00000000        0xc ./drivers/fsl_gpio.o
 .group         0x00000000        0xc ./drivers/fsl_gpio.o
 .group         0x00000000        0xc ./drivers/fsl_gpio.o
 .group         0x00000000        0xc ./drivers/fsl_gpio.o
 .group         0x00000000        0xc ./drivers/fsl_gpio.o
 .group         0x00000000        0xc ./drivers/fsl_gpio.o
 .group         0x00000000        0xc ./drivers/fsl_gpio.o
 .group         0x00000000        0xc ./drivers/fsl_gpio.o
 .group         0x00000000        0xc ./drivers/fsl_gpio.o
 .group         0x00000000        0xc ./drivers/fsl_gpio.o
 .group         0x00000000        0xc ./drivers/fsl_gpio.o
 .group         0x00000000        0xc ./drivers/fsl_gpio.o
 .text          0x00000000        0x0 ./drivers/fsl_gpio.o
 .data          0x00000000        0x0 ./drivers/fsl_gpio.o
 .bss           0x00000000        0x0 ./drivers/fsl_gpio.o
 .text._SDK_AtomicLocalClearAndSet4Byte
                0x00000000       0x50 ./drivers/fsl_gpio.o
 .rodata.CLOCK_ControlGate.str1.4
                0x00000000       0x20 ./drivers/fsl_gpio.o
 .text.CLOCK_ControlGate
                0x00000000       0x60 ./drivers/fsl_gpio.o
 .text.CLOCK_EnableClock
                0x00000000       0x1e ./drivers/fsl_gpio.o
 .text.GPIO_SetPinInterruptConfig
                0x00000000       0x22 ./drivers/fsl_gpio.o
 .rodata.s_gpioBases
                0x00000000       0x18 ./drivers/fsl_gpio.o
 .rodata.s_gpioClock
                0x00000000        0xc ./drivers/fsl_gpio.o
 .rodata.GPIO_GetInstance.str1.4
                0x00000000       0x33 ./drivers/fsl_gpio.o
 .text.GPIO_GetInstance
                0x00000000       0x4c ./drivers/fsl_gpio.o
 .text.GPIO_PinInit
                0x00000000       0xa4 ./drivers/fsl_gpio.o
 .rodata.GPIO_PinWrite.str1.4
                0x00000000       0x1b ./drivers/fsl_gpio.o
 .text.GPIO_PinWrite
                0x00000000       0x48 ./drivers/fsl_gpio.o
 .text.GPIO_PinSetInterruptConfig
                0x00000000       0xfc ./drivers/fsl_gpio.o
 .debug_info    0x00000000      0xdc7 ./drivers/fsl_gpio.o
 .debug_abbrev  0x00000000      0x2a1 ./drivers/fsl_gpio.o
 .debug_aranges
                0x00000000       0x58 ./drivers/fsl_gpio.o
 .debug_ranges  0x00000000       0x48 ./drivers/fsl_gpio.o
 .debug_macro   0x00000000      0x13d ./drivers/fsl_gpio.o
 .debug_macro   0x00000000      0xaba ./drivers/fsl_gpio.o
 .debug_macro   0x00000000       0x10 ./drivers/fsl_gpio.o
 .debug_macro   0x00000000       0x1c ./drivers/fsl_gpio.o
 .debug_macro   0x00000000       0x22 ./drivers/fsl_gpio.o
 .debug_macro   0x00000000      0x12e ./drivers/fsl_gpio.o
 .debug_macro   0x00000000      0x5b3 ./drivers/fsl_gpio.o
 .debug_macro   0x00000000       0x22 ./drivers/fsl_gpio.o
 .debug_macro   0x00000000       0x10 ./drivers/fsl_gpio.o
 .debug_macro   0x00000000       0x4d ./drivers/fsl_gpio.o
 .debug_macro   0x00000000       0x1c ./drivers/fsl_gpio.o
 .debug_macro   0x00000000       0x22 ./drivers/fsl_gpio.o
 .debug_macro   0x00000000       0xfb ./drivers/fsl_gpio.o
 .debug_macro   0x00000000     0x1313 ./drivers/fsl_gpio.o
 .debug_macro   0x00000000      0x11f ./drivers/fsl_gpio.o
 .debug_macro   0x00000000       0x22 ./drivers/fsl_gpio.o
 .debug_macro   0x00000000       0x22 ./drivers/fsl_gpio.o
 .debug_macro   0x00000000    0x24b4c ./drivers/fsl_gpio.o
 .debug_macro   0x00000000      0x841 ./drivers/fsl_gpio.o
 .debug_macro   0x00000000       0x7a ./drivers/fsl_gpio.o
 .debug_macro   0x00000000       0xaf ./drivers/fsl_gpio.o
 .debug_macro   0x00000000      0x24e ./drivers/fsl_gpio.o
 .debug_line    0x00000000      0x59c ./drivers/fsl_gpio.o
 .debug_str     0x00000000   0x1419bd ./drivers/fsl_gpio.o
 .comment       0x00000000       0x4a ./drivers/fsl_gpio.o
 .debug_frame   0x00000000      0x138 ./drivers/fsl_gpio.o
 .ARM.attributes
                0x00000000       0x34 ./drivers/fsl_gpio.o
 .group         0x00000000        0xc ./drivers/fsl_lpuart.o
 .group         0x00000000        0xc ./drivers/fsl_lpuart.o
 .group         0x00000000        0xc ./drivers/fsl_lpuart.o
 .group         0x00000000        0xc ./drivers/fsl_lpuart.o
 .group         0x00000000        0xc ./drivers/fsl_lpuart.o
 .group         0x00000000        0xc ./drivers/fsl_lpuart.o
 .group         0x00000000        0xc ./drivers/fsl_lpuart.o
 .group         0x00000000        0xc ./drivers/fsl_lpuart.o
 .group         0x00000000        0xc ./drivers/fsl_lpuart.o
 .group         0x00000000        0xc ./drivers/fsl_lpuart.o
 .group         0x00000000        0xc ./drivers/fsl_lpuart.o
 .group         0x00000000        0xc ./drivers/fsl_lpuart.o
 .group         0x00000000        0xc ./drivers/fsl_lpuart.o
 .group         0x00000000        0xc ./drivers/fsl_lpuart.o
 .group         0x00000000        0xc ./drivers/fsl_lpuart.o
 .group         0x00000000        0xc ./drivers/fsl_lpuart.o
 .group         0x00000000        0xc ./drivers/fsl_lpuart.o
 .group         0x00000000        0xc ./drivers/fsl_lpuart.o
 .group         0x00000000        0xc ./drivers/fsl_lpuart.o
 .group         0x00000000        0xc ./drivers/fsl_lpuart.o
 .group         0x00000000        0xc ./drivers/fsl_lpuart.o
 .group         0x00000000        0xc ./drivers/fsl_lpuart.o
 .text          0x00000000        0x0 ./drivers/fsl_lpuart.o
 .data          0x00000000        0x0 ./drivers/fsl_lpuart.o
 .bss           0x00000000        0x0 ./drivers/fsl_lpuart.o
 .text.__NVIC_EnableIRQ
                0x00000000       0x3c ./drivers/fsl_lpuart.o
 .text.CLOCK_DisableClock
                0x00000000       0x1e ./drivers/fsl_lpuart.o
 .text.EnableIRQ
                0x00000000       0x32 ./drivers/fsl_lpuart.o
 .text.DisableGlobalIRQ
                0x00000000       0x22 ./drivers/fsl_lpuart.o
 .text.EnableGlobalIRQ
                0x00000000       0x20 ./drivers/fsl_lpuart.o
 .rodata.s_lpuartIRQ
                0x00000000       0x12 ./drivers/fsl_lpuart.o
 .rodata.LPUART_TransferGetRxRingBufferLength.str1.4
                0x00000000       0x22 ./drivers/fsl_lpuart.o
 .text.LPUART_TransferGetRxRingBufferLength
                0x00000000       0x54 ./drivers/fsl_lpuart.o
 .rodata.LPUART_TransferIsRxRingBufferFull.str1.4
                0x00000000       0x22 ./drivers/fsl_lpuart.o
 .text.LPUART_TransferIsRxRingBufferFull
                0x00000000       0x44 ./drivers/fsl_lpuart.o
 .rodata.LPUART_WriteNonBlocking.str1.4
                0x00000000       0x20 ./drivers/fsl_lpuart.o
 .text.LPUART_WriteNonBlocking
                0x00000000       0x48 ./drivers/fsl_lpuart.o
 .rodata.LPUART_ReadNonBlocking.str1.4
                0x00000000       0x20 ./drivers/fsl_lpuart.o
 .text.LPUART_ReadNonBlocking
                0x00000000       0x98 ./drivers/fsl_lpuart.o
 .text.LPUART_Deinit
                0x00000000       0x70 ./drivers/fsl_lpuart.o
 .rodata.LPUART_SetBaudRate.str1.4
                0x00000000       0x25 ./drivers/fsl_lpuart.o
 .text.LPUART_SetBaudRate
                0x00000000      0x154 ./drivers/fsl_lpuart.o
 .rodata.LPUART_Enable9bitMode.str1.4
                0x00000000       0x20 ./drivers/fsl_lpuart.o
 .text.LPUART_Enable9bitMode
                0x00000000       0x6c ./drivers/fsl_lpuart.o
 .rodata.LPUART_SendAddress.str1.4
                0x00000000       0x20 ./drivers/fsl_lpuart.o
 .text.LPUART_SendAddress
                0x00000000       0x44 ./drivers/fsl_lpuart.o
 .text.LPUART_EnableInterrupts
                0x00000000       0x84 ./drivers/fsl_lpuart.o
 .text.LPUART_DisableInterrupts
                0x00000000       0x8c ./drivers/fsl_lpuart.o
 .text.LPUART_GetEnabledInterrupts
                0x00000000       0x60 ./drivers/fsl_lpuart.o
 .text.LPUART_GetStatusFlags
                0x00000000       0x38 ./drivers/fsl_lpuart.o
 .text.LPUART_ClearStatusFlags
                0x00000000       0x7c ./drivers/fsl_lpuart.o
 .rodata.LPUART_ReadBlocking.str1.4
                0x00000000       0x20 ./drivers/fsl_lpuart.o
 .text.LPUART_ReadBlocking
                0x00000000      0x160 ./drivers/fsl_lpuart.o
 .rodata.LPUART_TransferCreateHandle.str1.4
                0x00000000       0x23 ./drivers/fsl_lpuart.o
 .text.LPUART_TransferCreateHandle
                0x00000000       0xc0 ./drivers/fsl_lpuart.o
 .rodata.LPUART_TransferStartRingBuffer.str1.4
                0x00000000       0x4b ./drivers/fsl_lpuart.o
 .text.LPUART_TransferStartRingBuffer
                0x00000000       0x68 ./drivers/fsl_lpuart.o
 .rodata.LPUART_TransferStopRingBuffer.str1.4
                0x00000000       0x23 ./drivers/fsl_lpuart.o
 .text.LPUART_TransferStopRingBuffer
                0x00000000       0x60 ./drivers/fsl_lpuart.o
 .rodata.LPUART_TransferSendNonBlocking.str1.4
                0x00000000       0x9d ./drivers/fsl_lpuart.o
 .text.LPUART_TransferSendNonBlocking
                0x00000000       0xac ./drivers/fsl_lpuart.o
 .rodata.LPUART_TransferAbortSend.str1.4
                0x00000000       0x23 ./drivers/fsl_lpuart.o
 .text.LPUART_TransferAbortSend
                0x00000000       0x48 ./drivers/fsl_lpuart.o
 .rodata.LPUART_TransferGetSendCount.str1.4
                0x00000000       0x46 ./drivers/fsl_lpuart.o
 .text.LPUART_TransferGetSendCount
                0x00000000       0x6c ./drivers/fsl_lpuart.o
 .rodata.LPUART_TransferReceiveNonBlocking.str1.4
                0x00000000       0x9d ./drivers/fsl_lpuart.o
 .text.LPUART_TransferReceiveNonBlocking
                0x00000000      0x1c4 ./drivers/fsl_lpuart.o
 .rodata.LPUART_TransferAbortReceive.str1.4
                0x00000000       0x23 ./drivers/fsl_lpuart.o
 .text.LPUART_TransferAbortReceive
                0x00000000       0x50 ./drivers/fsl_lpuart.o
 .rodata.LPUART_TransferGetReceiveCount.str1.4
                0x00000000       0x46 ./drivers/fsl_lpuart.o
 .text.LPUART_TransferGetReceiveCount
                0x00000000       0x60 ./drivers/fsl_lpuart.o
 .rodata.LPUART_TransferHandleIRQ.str1.4
                0x00000000       0x26 ./drivers/fsl_lpuart.o
 .text.LPUART_TransferHandleIRQ
                0x00000000      0x408 ./drivers/fsl_lpuart.o
 .text.LPUART_TransferHandleErrorIRQ
                0x00000000       0x16 ./drivers/fsl_lpuart.o
 .debug_macro   0x00000000      0xaba ./drivers/fsl_lpuart.o
 .debug_macro   0x00000000       0x10 ./drivers/fsl_lpuart.o
 .debug_macro   0x00000000       0x1c ./drivers/fsl_lpuart.o
 .debug_macro   0x00000000       0x22 ./drivers/fsl_lpuart.o
 .debug_macro   0x00000000      0x12e ./drivers/fsl_lpuart.o
 .debug_macro   0x00000000      0x5b3 ./drivers/fsl_lpuart.o
 .debug_macro   0x00000000       0x22 ./drivers/fsl_lpuart.o
 .debug_macro   0x00000000       0x10 ./drivers/fsl_lpuart.o
 .debug_macro   0x00000000       0x4d ./drivers/fsl_lpuart.o
 .debug_macro   0x00000000       0x1c ./drivers/fsl_lpuart.o
 .debug_macro   0x00000000       0x22 ./drivers/fsl_lpuart.o
 .debug_macro   0x00000000       0xfb ./drivers/fsl_lpuart.o
 .debug_macro   0x00000000     0x1313 ./drivers/fsl_lpuart.o
 .debug_macro   0x00000000      0x11f ./drivers/fsl_lpuart.o
 .debug_macro   0x00000000       0x22 ./drivers/fsl_lpuart.o
 .debug_macro   0x00000000       0x22 ./drivers/fsl_lpuart.o
 .debug_macro   0x00000000    0x24b4c ./drivers/fsl_lpuart.o
 .debug_macro   0x00000000      0x841 ./drivers/fsl_lpuart.o
 .debug_macro   0x00000000       0x7a ./drivers/fsl_lpuart.o
 .debug_macro   0x00000000       0xaf ./drivers/fsl_lpuart.o
 .debug_macro   0x00000000      0x24e ./drivers/fsl_lpuart.o
 .group         0x00000000        0xc ./device/system_MIMXRT1052.o
 .group         0x00000000        0xc ./device/system_MIMXRT1052.o
 .group         0x00000000        0xc ./device/system_MIMXRT1052.o
 .group         0x00000000        0xc ./device/system_MIMXRT1052.o
 .group         0x00000000        0xc ./device/system_MIMXRT1052.o
 .group         0x00000000        0xc ./device/system_MIMXRT1052.o
 .group         0x00000000        0xc ./device/system_MIMXRT1052.o
 .group         0x00000000        0xc ./device/system_MIMXRT1052.o
 .group         0x00000000        0xc ./device/system_MIMXRT1052.o
 .group         0x00000000        0xc ./device/system_MIMXRT1052.o
 .group         0x00000000        0xc ./device/system_MIMXRT1052.o
 .group         0x00000000        0xc ./device/system_MIMXRT1052.o
 .group         0x00000000        0xc ./device/system_MIMXRT1052.o
 .group         0x00000000        0xc ./device/system_MIMXRT1052.o
 .group         0x00000000        0xc ./device/system_MIMXRT1052.o
 .text          0x00000000        0x0 ./device/system_MIMXRT1052.o
 .data          0x00000000        0x0 ./device/system_MIMXRT1052.o
 .bss           0x00000000        0x0 ./device/system_MIMXRT1052.o
 .text.SystemCoreClockUpdate
                0x00000000      0x214 ./device/system_MIMXRT1052.o
 .debug_macro   0x00000000      0xaba ./device/system_MIMXRT1052.o
 .debug_macro   0x00000000       0x10 ./device/system_MIMXRT1052.o
 .debug_macro   0x00000000      0x12e ./device/system_MIMXRT1052.o
 .debug_macro   0x00000000      0x5b3 ./device/system_MIMXRT1052.o
 .debug_macro   0x00000000       0x10 ./device/system_MIMXRT1052.o
 .debug_macro   0x00000000       0x4d ./device/system_MIMXRT1052.o
 .debug_macro   0x00000000       0x1c ./device/system_MIMXRT1052.o
 .debug_macro   0x00000000       0x22 ./device/system_MIMXRT1052.o
 .debug_macro   0x00000000       0xfb ./device/system_MIMXRT1052.o
 .debug_macro   0x00000000     0x1313 ./device/system_MIMXRT1052.o
 .debug_macro   0x00000000      0x11f ./device/system_MIMXRT1052.o
 .debug_macro   0x00000000       0x22 ./device/system_MIMXRT1052.o
 .debug_macro   0x00000000       0x22 ./device/system_MIMXRT1052.o
 .debug_macro   0x00000000    0x24b4c ./device/system_MIMXRT1052.o
 .debug_macro   0x00000000      0x841 ./device/system_MIMXRT1052.o
 .group         0x00000000        0xc ./component/uart/fsl_adapter_lpuart.o
 .group         0x00000000        0xc ./component/uart/fsl_adapter_lpuart.o
 .group         0x00000000        0xc ./component/uart/fsl_adapter_lpuart.o
 .group         0x00000000        0xc ./component/uart/fsl_adapter_lpuart.o
 .group         0x00000000        0xc ./component/uart/fsl_adapter_lpuart.o
 .group         0x00000000        0xc ./component/uart/fsl_adapter_lpuart.o
 .group         0x00000000        0xc ./component/uart/fsl_adapter_lpuart.o
 .group         0x00000000        0xc ./component/uart/fsl_adapter_lpuart.o
 .group         0x00000000        0xc ./component/uart/fsl_adapter_lpuart.o
 .group         0x00000000        0xc ./component/uart/fsl_adapter_lpuart.o
 .group         0x00000000        0xc ./component/uart/fsl_adapter_lpuart.o
 .group         0x00000000        0xc ./component/uart/fsl_adapter_lpuart.o
 .group         0x00000000        0xc ./component/uart/fsl_adapter_lpuart.o
 .group         0x00000000        0xc ./component/uart/fsl_adapter_lpuart.o
 .group         0x00000000        0xc ./component/uart/fsl_adapter_lpuart.o
 .group         0x00000000        0xc ./component/uart/fsl_adapter_lpuart.o
 .group         0x00000000        0xc ./component/uart/fsl_adapter_lpuart.o
 .group         0x00000000        0xc ./component/uart/fsl_adapter_lpuart.o
 .group         0x00000000        0xc ./component/uart/fsl_adapter_lpuart.o
 .group         0x00000000        0xc ./component/uart/fsl_adapter_lpuart.o
 .group         0x00000000        0xc ./component/uart/fsl_adapter_lpuart.o
 .group         0x00000000        0xc ./component/uart/fsl_adapter_lpuart.o
 .group         0x00000000        0xc ./component/uart/fsl_adapter_lpuart.o
 .text          0x00000000        0x0 ./component/uart/fsl_adapter_lpuart.o
 .data          0x00000000        0x0 ./component/uart/fsl_adapter_lpuart.o
 .bss           0x00000000        0x0 ./component/uart/fsl_adapter_lpuart.o
 .rodata.HAL_UartDeinit.str1.4
                0x00000000       0x2a ./component/uart/fsl_adapter_lpuart.o
 .text.HAL_UartDeinit
                0x00000000       0x3c ./component/uart/fsl_adapter_lpuart.o
 .rodata.HAL_UartReceiveBlocking.str1.4
                0x00000000       0x7b ./component/uart/fsl_adapter_lpuart.o
 .text.HAL_UartReceiveBlocking
                0x00000000       0x6c ./component/uart/fsl_adapter_lpuart.o
 .rodata.HAL_UartEnterLowpower.str1.4
                0x00000000       0x2a ./component/uart/fsl_adapter_lpuart.o
 .text.HAL_UartEnterLowpower
                0x00000000       0x24 ./component/uart/fsl_adapter_lpuart.o
 .text.HAL_UartExitLowpower
                0x00000000       0x16 ./component/uart/fsl_adapter_lpuart.o
 .debug_macro   0x00000000      0xaba ./component/uart/fsl_adapter_lpuart.o
 .debug_macro   0x00000000       0x10 ./component/uart/fsl_adapter_lpuart.o
 .debug_macro   0x00000000       0x1c ./component/uart/fsl_adapter_lpuart.o
 .debug_macro   0x00000000       0x22 ./component/uart/fsl_adapter_lpuart.o
 .debug_macro   0x00000000      0x12e ./component/uart/fsl_adapter_lpuart.o
 .debug_macro   0x00000000      0x5b3 ./component/uart/fsl_adapter_lpuart.o
 .debug_macro   0x00000000       0x22 ./component/uart/fsl_adapter_lpuart.o
 .debug_macro   0x00000000       0x10 ./component/uart/fsl_adapter_lpuart.o
 .debug_macro   0x00000000       0x4d ./component/uart/fsl_adapter_lpuart.o
 .debug_macro   0x00000000       0x1c ./component/uart/fsl_adapter_lpuart.o
 .debug_macro   0x00000000       0x22 ./component/uart/fsl_adapter_lpuart.o
 .debug_macro   0x00000000       0xfb ./component/uart/fsl_adapter_lpuart.o
 .debug_macro   0x00000000     0x1313 ./component/uart/fsl_adapter_lpuart.o
 .debug_macro   0x00000000      0x11f ./component/uart/fsl_adapter_lpuart.o
 .debug_macro   0x00000000       0x22 ./component/uart/fsl_adapter_lpuart.o
 .debug_macro   0x00000000       0x22 ./component/uart/fsl_adapter_lpuart.o
 .debug_macro   0x00000000    0x24b4c ./component/uart/fsl_adapter_lpuart.o
 .debug_macro   0x00000000      0x841 ./component/uart/fsl_adapter_lpuart.o
 .debug_macro   0x00000000       0x7a ./component/uart/fsl_adapter_lpuart.o
 .debug_macro   0x00000000       0xaf ./component/uart/fsl_adapter_lpuart.o
 .debug_macro   0x00000000      0x24e ./component/uart/fsl_adapter_lpuart.o
 .debug_macro   0x00000000       0x10 ./component/uart/fsl_adapter_lpuart.o
 .group         0x00000000        0xc ./component/serial_manager/fsl_component_serial_manager.o
 .group         0x00000000        0xc ./component/serial_manager/fsl_component_serial_manager.o
 .group         0x00000000        0xc ./component/serial_manager/fsl_component_serial_manager.o
 .group         0x00000000        0xc ./component/serial_manager/fsl_component_serial_manager.o
 .group         0x00000000        0xc ./component/serial_manager/fsl_component_serial_manager.o
 .group         0x00000000        0xc ./component/serial_manager/fsl_component_serial_manager.o
 .group         0x00000000        0xc ./component/serial_manager/fsl_component_serial_manager.o
 .group         0x00000000        0xc ./component/serial_manager/fsl_component_serial_manager.o
 .group         0x00000000        0xc ./component/serial_manager/fsl_component_serial_manager.o
 .group         0x00000000        0xc ./component/serial_manager/fsl_component_serial_manager.o
 .group         0x00000000        0xc ./component/serial_manager/fsl_component_serial_manager.o
 .group         0x00000000        0xc ./component/serial_manager/fsl_component_serial_manager.o
 .group         0x00000000        0xc ./component/serial_manager/fsl_component_serial_manager.o
 .group         0x00000000        0xc ./component/serial_manager/fsl_component_serial_manager.o
 .group         0x00000000        0xc ./component/serial_manager/fsl_component_serial_manager.o
 .group         0x00000000        0xc ./component/serial_manager/fsl_component_serial_manager.o
 .group         0x00000000        0xc ./component/serial_manager/fsl_component_serial_manager.o
 .group         0x00000000        0xc ./component/serial_manager/fsl_component_serial_manager.o
 .group         0x00000000        0xc ./component/serial_manager/fsl_component_serial_manager.o
 .group         0x00000000        0xc ./component/serial_manager/fsl_component_serial_manager.o
 .group         0x00000000        0xc ./component/serial_manager/fsl_component_serial_manager.o
 .group         0x00000000        0xc ./component/serial_manager/fsl_component_serial_manager.o
 .group         0x00000000        0xc ./component/serial_manager/fsl_component_serial_manager.o
 .group         0x00000000        0xc ./component/serial_manager/fsl_component_serial_manager.o
 .group         0x00000000        0xc ./component/serial_manager/fsl_component_serial_manager.o
 .text          0x00000000        0x0 ./component/serial_manager/fsl_component_serial_manager.o
 .data          0x00000000        0x0 ./component/serial_manager/fsl_component_serial_manager.o
 .bss           0x00000000        0x0 ./component/serial_manager/fsl_component_serial_manager.o
 .bss.s_pfserialLowpowerCriticalCallbacks
                0x00000000        0x4 ./component/serial_manager/fsl_component_serial_manager.o
 .text.SerialManager_StartReading
                0x00000000       0x38 ./component/serial_manager/fsl_component_serial_manager.o
 .text.SerialManager_Read
                0x00000000       0x44 ./component/serial_manager/fsl_component_serial_manager.o
 .text.SerialManager_Deinit
                0x00000000       0x5a ./component/serial_manager/fsl_component_serial_manager.o
 .text.SerialManager_CloseWriteHandle
                0x00000000       0x50 ./component/serial_manager/fsl_component_serial_manager.o
 .text.SerialManager_CloseReadHandle
                0x00000000       0x4e ./component/serial_manager/fsl_component_serial_manager.o
 .text.SerialManager_ReadBlocking
                0x00000000       0x20 ./component/serial_manager/fsl_component_serial_manager.o
 .text.SerialManager_EnterLowpower
                0x00000000       0x3c ./component/serial_manager/fsl_component_serial_manager.o
 .text.SerialManager_ExitLowpower
                0x00000000       0x3c ./component/serial_manager/fsl_component_serial_manager.o
 .text.SerialManager_SetLowpowerCriticalCb
                0x00000000       0x20 ./component/serial_manager/fsl_component_serial_manager.o
 .debug_macro   0x00000000      0xaba ./component/serial_manager/fsl_component_serial_manager.o
 .debug_macro   0x00000000       0x10 ./component/serial_manager/fsl_component_serial_manager.o
 .debug_macro   0x00000000      0x12e ./component/serial_manager/fsl_component_serial_manager.o
 .debug_macro   0x00000000       0x16 ./component/serial_manager/fsl_component_serial_manager.o
 .debug_macro   0x00000000       0x22 ./component/serial_manager/fsl_component_serial_manager.o
 .debug_macro   0x00000000      0x5b3 ./component/serial_manager/fsl_component_serial_manager.o
 .debug_macro   0x00000000       0x22 ./component/serial_manager/fsl_component_serial_manager.o
 .debug_macro   0x00000000       0x10 ./component/serial_manager/fsl_component_serial_manager.o
 .debug_macro   0x00000000       0x4d ./component/serial_manager/fsl_component_serial_manager.o
 .debug_macro   0x00000000       0x1c ./component/serial_manager/fsl_component_serial_manager.o
 .debug_macro   0x00000000       0x22 ./component/serial_manager/fsl_component_serial_manager.o
 .debug_macro   0x00000000       0xfb ./component/serial_manager/fsl_component_serial_manager.o
 .debug_macro   0x00000000     0x1313 ./component/serial_manager/fsl_component_serial_manager.o
 .debug_macro   0x00000000      0x11f ./component/serial_manager/fsl_component_serial_manager.o
 .debug_macro   0x00000000       0x22 ./component/serial_manager/fsl_component_serial_manager.o
 .debug_macro   0x00000000       0x22 ./component/serial_manager/fsl_component_serial_manager.o
 .debug_macro   0x00000000    0x24b4c ./component/serial_manager/fsl_component_serial_manager.o
 .debug_macro   0x00000000      0x841 ./component/serial_manager/fsl_component_serial_manager.o
 .debug_macro   0x00000000       0x7a ./component/serial_manager/fsl_component_serial_manager.o
 .debug_macro   0x00000000       0xaf ./component/serial_manager/fsl_component_serial_manager.o
 .debug_macro   0x00000000      0x24e ./component/serial_manager/fsl_component_serial_manager.o
 .debug_macro   0x00000000       0x46 ./component/serial_manager/fsl_component_serial_manager.o
 .debug_macro   0x00000000       0x16 ./component/serial_manager/fsl_component_serial_manager.o
 .debug_macro   0x00000000       0x6d ./component/serial_manager/fsl_component_serial_manager.o
 .group         0x00000000        0xc ./component/serial_manager/fsl_component_serial_port_uart.o
 .group         0x00000000        0xc ./component/serial_manager/fsl_component_serial_port_uart.o
 .group         0x00000000        0xc ./component/serial_manager/fsl_component_serial_port_uart.o
 .group         0x00000000        0xc ./component/serial_manager/fsl_component_serial_port_uart.o
 .group         0x00000000        0xc ./component/serial_manager/fsl_component_serial_port_uart.o
 .group         0x00000000        0xc ./component/serial_manager/fsl_component_serial_port_uart.o
 .group         0x00000000        0xc ./component/serial_manager/fsl_component_serial_port_uart.o
 .group         0x00000000        0xc ./component/serial_manager/fsl_component_serial_port_uart.o
 .group         0x00000000        0xc ./component/serial_manager/fsl_component_serial_port_uart.o
 .group         0x00000000        0xc ./component/serial_manager/fsl_component_serial_port_uart.o
 .group         0x00000000        0xc ./component/serial_manager/fsl_component_serial_port_uart.o
 .group         0x00000000        0xc ./component/serial_manager/fsl_component_serial_port_uart.o
 .group         0x00000000        0xc ./component/serial_manager/fsl_component_serial_port_uart.o
 .group         0x00000000        0xc ./component/serial_manager/fsl_component_serial_port_uart.o
 .group         0x00000000        0xc ./component/serial_manager/fsl_component_serial_port_uart.o
 .group         0x00000000        0xc ./component/serial_manager/fsl_component_serial_port_uart.o
 .group         0x00000000        0xc ./component/serial_manager/fsl_component_serial_port_uart.o
 .group         0x00000000        0xc ./component/serial_manager/fsl_component_serial_port_uart.o
 .group         0x00000000        0xc ./component/serial_manager/fsl_component_serial_port_uart.o
 .group         0x00000000        0xc ./component/serial_manager/fsl_component_serial_port_uart.o
 .group         0x00000000        0xc ./component/serial_manager/fsl_component_serial_port_uart.o
 .group         0x00000000        0xc ./component/serial_manager/fsl_component_serial_port_uart.o
 .group         0x00000000        0xc ./component/serial_manager/fsl_component_serial_port_uart.o
 .group         0x00000000        0xc ./component/serial_manager/fsl_component_serial_port_uart.o
 .group         0x00000000        0xc ./component/serial_manager/fsl_component_serial_port_uart.o
 .text          0x00000000        0x0 ./component/serial_manager/fsl_component_serial_port_uart.o
 .data          0x00000000        0x0 ./component/serial_manager/fsl_component_serial_port_uart.o
 .bss           0x00000000        0x0 ./component/serial_manager/fsl_component_serial_port_uart.o
 .text.Serial_UartDeinit
                0x00000000       0x24 ./component/serial_manager/fsl_component_serial_port_uart.o
 .text.Serial_UartRead
                0x00000000       0x38 ./component/serial_manager/fsl_component_serial_port_uart.o
 .text.Serial_UartEnterLowpower
                0x00000000       0x2e ./component/serial_manager/fsl_component_serial_port_uart.o
 .text.Serial_UartExitLowpower
                0x00000000       0x32 ./component/serial_manager/fsl_component_serial_port_uart.o
 .debug_macro   0x00000000      0xaba ./component/serial_manager/fsl_component_serial_port_uart.o
 .debug_macro   0x00000000       0x10 ./component/serial_manager/fsl_component_serial_port_uart.o
 .debug_macro   0x00000000       0x1c ./component/serial_manager/fsl_component_serial_port_uart.o
 .debug_macro   0x00000000       0x22 ./component/serial_manager/fsl_component_serial_port_uart.o
 .debug_macro   0x00000000      0x12e ./component/serial_manager/fsl_component_serial_port_uart.o
 .debug_macro   0x00000000      0x5b3 ./component/serial_manager/fsl_component_serial_port_uart.o
 .debug_macro   0x00000000       0x22 ./component/serial_manager/fsl_component_serial_port_uart.o
 .debug_macro   0x00000000       0x10 ./component/serial_manager/fsl_component_serial_port_uart.o
 .debug_macro   0x00000000       0x4d ./component/serial_manager/fsl_component_serial_port_uart.o
 .debug_macro   0x00000000       0x1c ./component/serial_manager/fsl_component_serial_port_uart.o
 .debug_macro   0x00000000       0x22 ./component/serial_manager/fsl_component_serial_port_uart.o
 .debug_macro   0x00000000       0xfb ./component/serial_manager/fsl_component_serial_port_uart.o
 .debug_macro   0x00000000     0x1313 ./component/serial_manager/fsl_component_serial_port_uart.o
 .debug_macro   0x00000000      0x11f ./component/serial_manager/fsl_component_serial_port_uart.o
 .debug_macro   0x00000000       0x22 ./component/serial_manager/fsl_component_serial_port_uart.o
 .debug_macro   0x00000000       0x22 ./component/serial_manager/fsl_component_serial_port_uart.o
 .debug_macro   0x00000000    0x24b4c ./component/serial_manager/fsl_component_serial_port_uart.o
 .debug_macro   0x00000000      0x841 ./component/serial_manager/fsl_component_serial_port_uart.o
 .debug_macro   0x00000000       0x7a ./component/serial_manager/fsl_component_serial_port_uart.o
 .debug_macro   0x00000000       0xaf ./component/serial_manager/fsl_component_serial_port_uart.o
 .debug_macro   0x00000000      0x24e ./component/serial_manager/fsl_component_serial_port_uart.o
 .debug_macro   0x00000000       0x6a ./component/serial_manager/fsl_component_serial_port_uart.o
 .debug_macro   0x00000000       0x46 ./component/serial_manager/fsl_component_serial_port_uart.o
 .debug_macro   0x00000000       0x16 ./component/serial_manager/fsl_component_serial_port_uart.o
 .debug_macro   0x00000000       0x6d ./component/serial_manager/fsl_component_serial_port_uart.o
 .group         0x00000000        0xc ./component/lists/fsl_component_generic_list.o
 .group         0x00000000        0xc ./component/lists/fsl_component_generic_list.o
 .group         0x00000000        0xc ./component/lists/fsl_component_generic_list.o
 .group         0x00000000        0xc ./component/lists/fsl_component_generic_list.o
 .group         0x00000000        0xc ./component/lists/fsl_component_generic_list.o
 .group         0x00000000        0xc ./component/lists/fsl_component_generic_list.o
 .group         0x00000000        0xc ./component/lists/fsl_component_generic_list.o
 .group         0x00000000        0xc ./component/lists/fsl_component_generic_list.o
 .group         0x00000000        0xc ./component/lists/fsl_component_generic_list.o
 .group         0x00000000        0xc ./component/lists/fsl_component_generic_list.o
 .group         0x00000000        0xc ./component/lists/fsl_component_generic_list.o
 .group         0x00000000        0xc ./component/lists/fsl_component_generic_list.o
 .group         0x00000000        0xc ./component/lists/fsl_component_generic_list.o
 .group         0x00000000        0xc ./component/lists/fsl_component_generic_list.o
 .group         0x00000000        0xc ./component/lists/fsl_component_generic_list.o
 .group         0x00000000        0xc ./component/lists/fsl_component_generic_list.o
 .group         0x00000000        0xc ./component/lists/fsl_component_generic_list.o
 .group         0x00000000        0xc ./component/lists/fsl_component_generic_list.o
 .group         0x00000000        0xc ./component/lists/fsl_component_generic_list.o
 .group         0x00000000        0xc ./component/lists/fsl_component_generic_list.o
 .group         0x00000000        0xc ./component/lists/fsl_component_generic_list.o
 .group         0x00000000        0xc ./component/lists/fsl_component_generic_list.o
 .group         0x00000000        0xc ./component/lists/fsl_component_generic_list.o
 .text          0x00000000        0x0 ./component/lists/fsl_component_generic_list.o
 .data          0x00000000        0x0 ./component/lists/fsl_component_generic_list.o
 .bss           0x00000000        0x0 ./component/lists/fsl_component_generic_list.o
 .text.DisableGlobalIRQ
                0x00000000       0x22 ./component/lists/fsl_component_generic_list.o
 .text.EnableGlobalIRQ
                0x00000000       0x20 ./component/lists/fsl_component_generic_list.o
 .text.LIST_Error_Check
                0x00000000       0x36 ./component/lists/fsl_component_generic_list.o
 .text.LIST_Init
                0x00000000       0x2e ./component/lists/fsl_component_generic_list.o
 .text.LIST_GetList
                0x00000000       0x18 ./component/lists/fsl_component_generic_list.o
 .text.LIST_AddTail
                0x00000000       0x6a ./component/lists/fsl_component_generic_list.o
 .text.LIST_AddHead
                0x00000000       0x62 ./component/lists/fsl_component_generic_list.o
 .text.LIST_RemoveHead
                0x00000000       0x5e ./component/lists/fsl_component_generic_list.o
 .text.LIST_GetHead
                0x00000000       0x18 ./component/lists/fsl_component_generic_list.o
 .text.LIST_GetNext
                0x00000000       0x18 ./component/lists/fsl_component_generic_list.o
 .text.LIST_GetPrev
                0x00000000       0x16 ./component/lists/fsl_component_generic_list.o
 .text.LIST_RemoveElement
                0x00000000       0x84 ./component/lists/fsl_component_generic_list.o
 .text.LIST_AddPrevElement
                0x00000000       0xa4 ./component/lists/fsl_component_generic_list.o
 .text.LIST_GetSize
                0x00000000       0x18 ./component/lists/fsl_component_generic_list.o
 .text.LIST_GetAvailableSize
                0x00000000       0x1e ./component/lists/fsl_component_generic_list.o
 .debug_info    0x00000000      0x591 ./component/lists/fsl_component_generic_list.o
 .debug_abbrev  0x00000000      0x281 ./component/lists/fsl_component_generic_list.o
 .debug_aranges
                0x00000000       0x90 ./component/lists/fsl_component_generic_list.o
 .debug_ranges  0x00000000       0x80 ./component/lists/fsl_component_generic_list.o
 .debug_macro   0x00000000      0x141 ./component/lists/fsl_component_generic_list.o
 .debug_macro   0x00000000      0xaba ./component/lists/fsl_component_generic_list.o
 .debug_macro   0x00000000       0x10 ./component/lists/fsl_component_generic_list.o
 .debug_macro   0x00000000       0x10 ./component/lists/fsl_component_generic_list.o
 .debug_macro   0x00000000       0x1c ./component/lists/fsl_component_generic_list.o
 .debug_macro   0x00000000       0x22 ./component/lists/fsl_component_generic_list.o
 .debug_macro   0x00000000      0x12e ./component/lists/fsl_component_generic_list.o
 .debug_macro   0x00000000      0x5b3 ./component/lists/fsl_component_generic_list.o
 .debug_macro   0x00000000       0x22 ./component/lists/fsl_component_generic_list.o
 .debug_macro   0x00000000       0x10 ./component/lists/fsl_component_generic_list.o
 .debug_macro   0x00000000       0x4d ./component/lists/fsl_component_generic_list.o
 .debug_macro   0x00000000       0x1c ./component/lists/fsl_component_generic_list.o
 .debug_macro   0x00000000       0x22 ./component/lists/fsl_component_generic_list.o
 .debug_macro   0x00000000       0xfb ./component/lists/fsl_component_generic_list.o
 .debug_macro   0x00000000     0x1313 ./component/lists/fsl_component_generic_list.o
 .debug_macro   0x00000000      0x11f ./component/lists/fsl_component_generic_list.o
 .debug_macro   0x00000000       0x22 ./component/lists/fsl_component_generic_list.o
 .debug_macro   0x00000000       0x22 ./component/lists/fsl_component_generic_list.o
 .debug_macro   0x00000000    0x24b4c ./component/lists/fsl_component_generic_list.o
 .debug_macro   0x00000000      0x841 ./component/lists/fsl_component_generic_list.o
 .debug_macro   0x00000000       0x7a ./component/lists/fsl_component_generic_list.o
 .debug_macro   0x00000000       0xaf ./component/lists/fsl_component_generic_list.o
 .debug_macro   0x00000000      0x24e ./component/lists/fsl_component_generic_list.o
 .debug_macro   0x00000000       0x10 ./component/lists/fsl_component_generic_list.o
 .debug_line    0x00000000      0x717 ./component/lists/fsl_component_generic_list.o
 .debug_str     0x00000000   0x140911 ./component/lists/fsl_component_generic_list.o
 .comment       0x00000000       0x4a ./component/lists/fsl_component_generic_list.o
 .debug_frame   0x00000000      0x254 ./component/lists/fsl_component_generic_list.o
 .ARM.attributes
                0x00000000       0x34 ./component/lists/fsl_component_generic_list.o
 .group         0x00000000        0xc ./board/board.o
 .group         0x00000000        0xc ./board/board.o
 .group         0x00000000        0xc ./board/board.o
 .group         0x00000000        0xc ./board/board.o
 .group         0x00000000        0xc ./board/board.o
 .group         0x00000000        0xc ./board/board.o
 .group         0x00000000        0xc ./board/board.o
 .group         0x00000000        0xc ./board/board.o
 .group         0x00000000        0xc ./board/board.o
 .group         0x00000000        0xc ./board/board.o
 .group         0x00000000        0xc ./board/board.o
 .group         0x00000000        0xc ./board/board.o
 .group         0x00000000        0xc ./board/board.o
 .group         0x00000000        0xc ./board/board.o
 .group         0x00000000        0xc ./board/board.o
 .group         0x00000000        0xc ./board/board.o
 .group         0x00000000        0xc ./board/board.o
 .group         0x00000000        0xc ./board/board.o
 .group         0x00000000        0xc ./board/board.o
 .group         0x00000000        0xc ./board/board.o
 .group         0x00000000        0xc ./board/board.o
 .group         0x00000000        0xc ./board/board.o
 .group         0x00000000        0xc ./board/board.o
 .group         0x00000000        0xc ./board/board.o
 .group         0x00000000        0xc ./board/board.o
 .group         0x00000000        0xc ./board/board.o
 .group         0x00000000        0xc ./board/board.o
 .group         0x00000000        0xc ./board/board.o
 .group         0x00000000        0xc ./board/board.o
 .group         0x00000000        0xc ./board/board.o
 .group         0x00000000        0xc ./board/board.o
 .group         0x00000000        0xc ./board/board.o
 .text          0x00000000        0x0 ./board/board.o
 .data          0x00000000        0x0 ./board/board.o
 .bss           0x00000000        0x0 ./board/board.o
 .debug_macro   0x00000000      0xaba ./board/board.o
 .debug_macro   0x00000000       0x10 ./board/board.o
 .debug_macro   0x00000000       0x1c ./board/board.o
 .debug_macro   0x00000000       0x22 ./board/board.o
 .debug_macro   0x00000000      0x12e ./board/board.o
 .debug_macro   0x00000000      0x5b3 ./board/board.o
 .debug_macro   0x00000000       0x22 ./board/board.o
 .debug_macro   0x00000000       0x10 ./board/board.o
 .debug_macro   0x00000000       0x4d ./board/board.o
 .debug_macro   0x00000000       0x1c ./board/board.o
 .debug_macro   0x00000000       0x22 ./board/board.o
 .debug_macro   0x00000000       0xfb ./board/board.o
 .debug_macro   0x00000000     0x1313 ./board/board.o
 .debug_macro   0x00000000      0x11f ./board/board.o
 .debug_macro   0x00000000       0x22 ./board/board.o
 .debug_macro   0x00000000       0x22 ./board/board.o
 .debug_macro   0x00000000    0x24b4c ./board/board.o
 .debug_macro   0x00000000      0x841 ./board/board.o
 .debug_macro   0x00000000       0x7a ./board/board.o
 .debug_macro   0x00000000       0xaf ./board/board.o
 .debug_macro   0x00000000      0x24e ./board/board.o
 .debug_macro   0x00000000       0x70 ./board/board.o
 .debug_macro   0x00000000       0x46 ./board/board.o
 .debug_macro   0x00000000       0x16 ./board/board.o
 .debug_macro   0x00000000       0x6d ./board/board.o
 .debug_macro   0x00000000       0x16 ./board/board.o
 .debug_macro   0x00000000       0x1c ./board/board.o
 .debug_macro   0x00000000       0x1c ./board/board.o
 .debug_macro   0x00000000      0x130 ./board/board.o
 .debug_macro   0x00000000       0x10 ./board/board.o
 .debug_macro   0x00000000      0x16c ./board/board.o
 .group         0x00000000        0xc ./board/clock_config.o
 .group         0x00000000        0xc ./board/clock_config.o
 .group         0x00000000        0xc ./board/clock_config.o
 .group         0x00000000        0xc ./board/clock_config.o
 .group         0x00000000        0xc ./board/clock_config.o
 .group         0x00000000        0xc ./board/clock_config.o
 .group         0x00000000        0xc ./board/clock_config.o
 .group         0x00000000        0xc ./board/clock_config.o
 .group         0x00000000        0xc ./board/clock_config.o
 .group         0x00000000        0xc ./board/clock_config.o
 .group         0x00000000        0xc ./board/clock_config.o
 .group         0x00000000        0xc ./board/clock_config.o
 .group         0x00000000        0xc ./board/clock_config.o
 .group         0x00000000        0xc ./board/clock_config.o
 .group         0x00000000        0xc ./board/clock_config.o
 .group         0x00000000        0xc ./board/clock_config.o
 .group         0x00000000        0xc ./board/clock_config.o
 .group         0x00000000        0xc ./board/clock_config.o
 .group         0x00000000        0xc ./board/clock_config.o
 .group         0x00000000        0xc ./board/clock_config.o
 .group         0x00000000        0xc ./board/clock_config.o
 .group         0x00000000        0xc ./board/clock_config.o
 .group         0x00000000        0xc ./board/clock_config.o
 .text          0x00000000        0x0 ./board/clock_config.o
 .data          0x00000000        0x0 ./board/clock_config.o
 .bss           0x00000000        0x0 ./board/clock_config.o
 .rodata.usb1PllConfig_BOARD_BootClockRUN
                0x00000000        0x2 ./board/clock_config.o
 .rodata.videoPllConfig_BOARD_BootClockRUN
                0x00000000       0x10 ./board/clock_config.o
 .debug_macro   0x00000000      0xaba ./board/clock_config.o
 .debug_macro   0x00000000       0x10 ./board/clock_config.o
 .debug_macro   0x00000000       0x1c ./board/clock_config.o
 .debug_macro   0x00000000       0x22 ./board/clock_config.o
 .debug_macro   0x00000000      0x12e ./board/clock_config.o
 .debug_macro   0x00000000      0x5b3 ./board/clock_config.o
 .debug_macro   0x00000000       0x22 ./board/clock_config.o
 .debug_macro   0x00000000       0x10 ./board/clock_config.o
 .debug_macro   0x00000000       0x4d ./board/clock_config.o
 .debug_macro   0x00000000       0x1c ./board/clock_config.o
 .debug_macro   0x00000000       0x22 ./board/clock_config.o
 .debug_macro   0x00000000       0xfb ./board/clock_config.o
 .debug_macro   0x00000000     0x1313 ./board/clock_config.o
 .debug_macro   0x00000000      0x11f ./board/clock_config.o
 .debug_macro   0x00000000       0x22 ./board/clock_config.o
 .debug_macro   0x00000000       0x22 ./board/clock_config.o
 .debug_macro   0x00000000    0x24b4c ./board/clock_config.o
 .debug_macro   0x00000000      0x841 ./board/clock_config.o
 .debug_macro   0x00000000       0x7a ./board/clock_config.o
 .debug_macro   0x00000000       0xaf ./board/clock_config.o
 .debug_macro   0x00000000      0x24e ./board/clock_config.o
 .debug_macro   0x00000000      0x12a ./board/clock_config.o
 .debug_macro   0x00000000     0x1764 ./board/clock_config.o
 .group         0x00000000        0xc ./board/dcd.o
 .group         0x00000000        0xc ./board/dcd.o
 .group         0x00000000        0xc ./board/dcd.o
 .group         0x00000000        0xc ./board/dcd.o
 .group         0x00000000        0xc ./board/dcd.o
 .text          0x00000000        0x0 ./board/dcd.o
 .data          0x00000000        0x0 ./board/dcd.o
 .bss           0x00000000        0x0 ./board/dcd.o
 .rodata.dcd_data
                0x00000000        0x1 ./board/dcd.o
 .debug_info    0x00000000       0xa1 ./board/dcd.o
 .debug_abbrev  0x00000000       0x64 ./board/dcd.o
 .debug_aranges
                0x00000000       0x18 ./board/dcd.o
 .debug_macro   0x00000000       0x51 ./board/dcd.o
 .debug_macro   0x00000000      0xaba ./board/dcd.o
 .debug_macro   0x00000000       0x10 ./board/dcd.o
 .debug_macro   0x00000000      0x12e ./board/dcd.o
 .debug_macro   0x00000000      0x5b3 ./board/dcd.o
 .debug_macro   0x00000000       0x22 ./board/dcd.o
 .debug_line    0x00000000      0x168 ./board/dcd.o
 .debug_str     0x00000000     0x4593 ./board/dcd.o
 .comment       0x00000000       0x4a ./board/dcd.o
 .ARM.attributes
                0x00000000       0x34 ./board/dcd.o
 .group         0x00000000        0xc ./board/peripherals.o
 .text          0x00000000        0x0 ./board/peripherals.o
 .data          0x00000000        0x0 ./board/peripherals.o
 .bss           0x00000000        0x0 ./board/peripherals.o
 .debug_macro   0x00000000      0xaba ./board/peripherals.o
 .group         0x00000000        0xc ./board/pin_mux.o
 .group         0x00000000        0xc ./board/pin_mux.o
 .group         0x00000000        0xc ./board/pin_mux.o
 .group         0x00000000        0xc ./board/pin_mux.o
 .group         0x00000000        0xc ./board/pin_mux.o
 .group         0x00000000        0xc ./board/pin_mux.o
 .group         0x00000000        0xc ./board/pin_mux.o
 .group         0x00000000        0xc ./board/pin_mux.o
 .group         0x00000000        0xc ./board/pin_mux.o
 .group         0x00000000        0xc ./board/pin_mux.o
 .group         0x00000000        0xc ./board/pin_mux.o
 .group         0x00000000        0xc ./board/pin_mux.o
 .group         0x00000000        0xc ./board/pin_mux.o
 .group         0x00000000        0xc ./board/pin_mux.o
 .group         0x00000000        0xc ./board/pin_mux.o
 .group         0x00000000        0xc ./board/pin_mux.o
 .group         0x00000000        0xc ./board/pin_mux.o
 .group         0x00000000        0xc ./board/pin_mux.o
 .group         0x00000000        0xc ./board/pin_mux.o
 .group         0x00000000        0xc ./board/pin_mux.o
 .group         0x00000000        0xc ./board/pin_mux.o
 .group         0x00000000        0xc ./board/pin_mux.o
 .group         0x00000000        0xc ./board/pin_mux.o
 .text          0x00000000        0x0 ./board/pin_mux.o
 .data          0x00000000        0x0 ./board/pin_mux.o
 .bss           0x00000000        0x0 ./board/pin_mux.o
 .text.BOARD_InitSDRAMPins
                0x00000000      0x45c ./board/pin_mux.o
 .text.BOARD_InitCSIPins
                0x00000000      0x218 ./board/pin_mux.o
 .text.BOARD_InitLCDPins
                0x00000000      0x448 ./board/pin_mux.o
 .text.BOARD_InitCANPins
                0x00000000       0x50 ./board/pin_mux.o
 .text.BOARD_InitENETPins
                0x00000000      0x144 ./board/pin_mux.o
 .text.BOARD_InitUSDHCPins
                0x00000000       0xbc ./board/pin_mux.o
 .text.BOARD_InitHyperFlashPins
                0x00000000      0x18c ./board/pin_mux.o
 .debug_macro   0x00000000      0xaba ./board/pin_mux.o
 .debug_macro   0x00000000       0x10 ./board/pin_mux.o
 .debug_macro   0x00000000       0x1c ./board/pin_mux.o
 .debug_macro   0x00000000       0x22 ./board/pin_mux.o
 .debug_macro   0x00000000      0x12e ./board/pin_mux.o
 .debug_macro   0x00000000      0x5b3 ./board/pin_mux.o
 .debug_macro   0x00000000       0x22 ./board/pin_mux.o
 .debug_macro   0x00000000       0x10 ./board/pin_mux.o
 .debug_macro   0x00000000       0x4d ./board/pin_mux.o
 .debug_macro   0x00000000       0x1c ./board/pin_mux.o
 .debug_macro   0x00000000       0x22 ./board/pin_mux.o
 .debug_macro   0x00000000       0xfb ./board/pin_mux.o
 .debug_macro   0x00000000     0x1313 ./board/pin_mux.o
 .debug_macro   0x00000000      0x11f ./board/pin_mux.o
 .debug_macro   0x00000000       0x22 ./board/pin_mux.o
 .debug_macro   0x00000000       0x22 ./board/pin_mux.o
 .debug_macro   0x00000000    0x24b4c ./board/pin_mux.o
 .debug_macro   0x00000000      0x841 ./board/pin_mux.o
 .debug_macro   0x00000000       0x7a ./board/pin_mux.o
 .debug_macro   0x00000000       0xaf ./board/pin_mux.o
 .debug_macro   0x00000000      0x24e ./board/pin_mux.o
 .debug_macro   0x00000000     0x1764 ./board/pin_mux.o
 .debug_macro   0x00000000      0x7f4 ./board/pin_mux.o
 .text          0x00000000        0x0 c:/nxp/mcuxpressoide_11.6.0_8187/ide/plugins/com.nxp.mcuxpresso.tools.win32_11.6.0.202112161359/tools/bin/../lib/gcc/arm-none-eabi/10.3.1/../../../../arm-none-eabi/lib/thumb/v7e-m+fp/hard\libcr_nohost_nf.a(_cr__main.o)
 .data          0x00000000        0x0 c:/nxp/mcuxpressoide_11.6.0_8187/ide/plugins/com.nxp.mcuxpresso.tools.win32_11.6.0.202112161359/tools/bin/../lib/gcc/arm-none-eabi/10.3.1/../../../../arm-none-eabi/lib/thumb/v7e-m+fp/hard\libcr_nohost_nf.a(_cr__main.o)
 .bss           0x00000000        0x0 c:/nxp/mcuxpressoide_11.6.0_8187/ide/plugins/com.nxp.mcuxpresso.tools.win32_11.6.0.202112161359/tools/bin/../lib/gcc/arm-none-eabi/10.3.1/../../../../arm-none-eabi/lib/thumb/v7e-m+fp/hard\libcr_nohost_nf.a(_cr__main.o)
 .text          0x00000000        0x0 c:/nxp/mcuxpressoide_11.6.0_8187/ide/plugins/com.nxp.mcuxpresso.tools.win32_11.6.0.202112161359/tools/bin/../lib/gcc/arm-none-eabi/10.3.1/../../../../arm-none-eabi/lib/thumb/v7e-m+fp/hard\libcr_c.a(memcpy.o)
 .data          0x00000000        0x0 c:/nxp/mcuxpressoide_11.6.0_8187/ide/plugins/com.nxp.mcuxpresso.tools.win32_11.6.0.202112161359/tools/bin/../lib/gcc/arm-none-eabi/10.3.1/../../../../arm-none-eabi/lib/thumb/v7e-m+fp/hard\libcr_c.a(memcpy.o)
 .bss           0x00000000        0x0 c:/nxp/mcuxpressoide_11.6.0_8187/ide/plugins/com.nxp.mcuxpresso.tools.win32_11.6.0.202112161359/tools/bin/../lib/gcc/arm-none-eabi/10.3.1/../../../../arm-none-eabi/lib/thumb/v7e-m+fp/hard\libcr_c.a(memcpy.o)
 .text          0x00000000        0x0 c:/nxp/mcuxpressoide_11.6.0_8187/ide/plugins/com.nxp.mcuxpresso.tools.win32_11.6.0.202112161359/tools/bin/../lib/gcc/arm-none-eabi/10.3.1/../../../../arm-none-eabi/lib/thumb/v7e-m+fp/hard\libcr_c.a(memset.o)
 .data          0x00000000        0x0 c:/nxp/mcuxpressoide_11.6.0_8187/ide/plugins/com.nxp.mcuxpresso.tools.win32_11.6.0.202112161359/tools/bin/../lib/gcc/arm-none-eabi/10.3.1/../../../../arm-none-eabi/lib/thumb/v7e-m+fp/hard\libcr_c.a(memset.o)
 .bss           0x00000000        0x0 c:/nxp/mcuxpressoide_11.6.0_8187/ide/plugins/com.nxp.mcuxpresso.tools.win32_11.6.0.202112161359/tools/bin/../lib/gcc/arm-none-eabi/10.3.1/../../../../arm-none-eabi/lib/thumb/v7e-m+fp/hard\libcr_c.a(memset.o)
 .text          0x00000000        0x0 c:/nxp/mcuxpressoide_11.6.0_8187/ide/plugins/com.nxp.mcuxpresso.tools.win32_11.6.0.202112161359/tools/bin/../lib/gcc/arm-none-eabi/10.3.1/../../../../arm-none-eabi/lib/thumb/v7e-m+fp/hard\libcr_c.a(alloc.o)
 .data          0x00000000        0x0 c:/nxp/mcuxpressoide_11.6.0_8187/ide/plugins/com.nxp.mcuxpresso.tools.win32_11.6.0.202112161359/tools/bin/../lib/gcc/arm-none-eabi/10.3.1/../../../../arm-none-eabi/lib/thumb/v7e-m+fp/hard\libcr_c.a(alloc.o)
 .bss           0x00000000        0x0 c:/nxp/mcuxpressoide_11.6.0_8187/ide/plugins/com.nxp.mcuxpresso.tools.win32_11.6.0.202112161359/tools/bin/../lib/gcc/arm-none-eabi/10.3.1/../../../../arm-none-eabi/lib/thumb/v7e-m+fp/hard\libcr_c.a(alloc.o)
 .text.malloc   0x00000000       0xc8 c:/nxp/mcuxpressoide_11.6.0_8187/ide/plugins/com.nxp.mcuxpresso.tools.win32_11.6.0.202112161359/tools/bin/../lib/gcc/arm-none-eabi/10.3.1/../../../../arm-none-eabi/lib/thumb/v7e-m+fp/hard\libcr_c.a(alloc.o)
 .text.calloc   0x00000000       0x54 c:/nxp/mcuxpressoide_11.6.0_8187/ide/plugins/com.nxp.mcuxpresso.tools.win32_11.6.0.202112161359/tools/bin/../lib/gcc/arm-none-eabi/10.3.1/../../../../arm-none-eabi/lib/thumb/v7e-m+fp/hard\libcr_c.a(alloc.o)
 .rodata._Csys_alloc.str1.1
                0x00000000       0x18 c:/nxp/mcuxpressoide_11.6.0_8187/ide/plugins/com.nxp.mcuxpresso.tools.win32_11.6.0.202112161359/tools/bin/../lib/gcc/arm-none-eabi/10.3.1/../../../../arm-none-eabi/lib/thumb/v7e-m+fp/hard\libcr_c.a(alloc.o)
 .text._Csys_alloc
                0x00000000       0x20 c:/nxp/mcuxpressoide_11.6.0_8187/ide/plugins/com.nxp.mcuxpresso.tools.win32_11.6.0.202112161359/tools/bin/../lib/gcc/arm-none-eabi/10.3.1/../../../../arm-none-eabi/lib/thumb/v7e-m+fp/hard\libcr_c.a(alloc.o)
 .text.realloc  0x00000000       0x26 c:/nxp/mcuxpressoide_11.6.0_8187/ide/plugins/com.nxp.mcuxpresso.tools.win32_11.6.0.202112161359/tools/bin/../lib/gcc/arm-none-eabi/10.3.1/../../../../arm-none-eabi/lib/thumb/v7e-m+fp/hard\libcr_c.a(alloc.o)
 .text          0x00000000        0x0 c:/nxp/mcuxpressoide_11.6.0_8187/ide/plugins/com.nxp.mcuxpresso.tools.win32_11.6.0.202112161359/tools/bin/../lib/gcc/arm-none-eabi/10.3.1/../../../../arm-none-eabi/lib/thumb/v7e-m+fp/hard\libcr_c.a(errno.o)
 .data          0x00000000        0x0 c:/nxp/mcuxpressoide_11.6.0_8187/ide/plugins/com.nxp.mcuxpresso.tools.win32_11.6.0.202112161359/tools/bin/../lib/gcc/arm-none-eabi/10.3.1/../../../../arm-none-eabi/lib/thumb/v7e-m+fp/hard\libcr_c.a(errno.o)
 .bss           0x00000000        0x0 c:/nxp/mcuxpressoide_11.6.0_8187/ide/plugins/com.nxp.mcuxpresso.tools.win32_11.6.0.202112161359/tools/bin/../lib/gcc/arm-none-eabi/10.3.1/../../../../arm-none-eabi/lib/thumb/v7e-m+fp/hard\libcr_c.a(errno.o)
 .text          0x00000000        0x0 c:/nxp/mcuxpressoide_11.6.0_8187/ide/plugins/com.nxp.mcuxpresso.tools.win32_11.6.0.202112161359/tools/bin/../lib/gcc/arm-none-eabi/10.3.1/../../../../arm-none-eabi/lib/thumb/v7e-m+fp/hard\libcr_c.a(initio.o)
 .data          0x00000000        0x0 c:/nxp/mcuxpressoide_11.6.0_8187/ide/plugins/com.nxp.mcuxpresso.tools.win32_11.6.0.202112161359/tools/bin/../lib/gcc/arm-none-eabi/10.3.1/../../../../arm-none-eabi/lib/thumb/v7e-m+fp/hard\libcr_c.a(initio.o)
 .bss           0x00000000        0x0 c:/nxp/mcuxpressoide_11.6.0_8187/ide/plugins/com.nxp.mcuxpresso.tools.win32_11.6.0.202112161359/tools/bin/../lib/gcc/arm-none-eabi/10.3.1/../../../../arm-none-eabi/lib/thumb/v7e-m+fp/hard\libcr_c.a(initio.o)
 .text._terminateio
                0x00000000       0x50 c:/nxp/mcuxpressoide_11.6.0_8187/ide/plugins/com.nxp.mcuxpresso.tools.win32_11.6.0.202112161359/tools/bin/../lib/gcc/arm-none-eabi/10.3.1/../../../../arm-none-eabi/lib/thumb/v7e-m+fp/hard\libcr_c.a(initio.o)
 .text          0x00000000        0x0 c:/nxp/mcuxpressoide_11.6.0_8187/ide/plugins/com.nxp.mcuxpresso.tools.win32_11.6.0.202112161359/tools/bin/../lib/gcc/arm-none-eabi/10.3.1/../../../../arm-none-eabi/lib/thumb/v7e-m+fp/hard\libcr_c.a(scanf.o)
 .data          0x00000000        0x0 c:/nxp/mcuxpressoide_11.6.0_8187/ide/plugins/com.nxp.mcuxpresso.tools.win32_11.6.0.202112161359/tools/bin/../lib/gcc/arm-none-eabi/10.3.1/../../../../arm-none-eabi/lib/thumb/v7e-m+fp/hard\libcr_c.a(scanf.o)
 .bss           0x00000000        0x0 c:/nxp/mcuxpressoide_11.6.0_8187/ide/plugins/com.nxp.mcuxpresso.tools.win32_11.6.0.202112161359/tools/bin/../lib/gcc/arm-none-eabi/10.3.1/../../../../arm-none-eabi/lib/thumb/v7e-m+fp/hard\libcr_c.a(scanf.o)
 .text.ch_val   0x00000000       0x30 c:/nxp/mcuxpressoide_11.6.0_8187/ide/plugins/com.nxp.mcuxpresso.tools.win32_11.6.0.202112161359/tools/bin/../lib/gcc/arm-none-eabi/10.3.1/../../../../arm-none-eabi/lib/thumb/v7e-m+fp/hard\libcr_c.a(scanf.o)
 .text._strtoul
                0x00000000       0xb8 c:/nxp/mcuxpressoide_11.6.0_8187/ide/plugins/com.nxp.mcuxpresso.tools.win32_11.6.0.202112161359/tools/bin/../lib/gcc/arm-none-eabi/10.3.1/../../../../arm-none-eabi/lib/thumb/v7e-m+fp/hard\libcr_c.a(scanf.o)
 .text.cr_rd_int
                0x00000000      0x1a8 c:/nxp/mcuxpressoide_11.6.0_8187/ide/plugins/com.nxp.mcuxpresso.tools.win32_11.6.0.202112161359/tools/bin/../lib/gcc/arm-none-eabi/10.3.1/../../../../arm-none-eabi/lib/thumb/v7e-m+fp/hard\libcr_c.a(scanf.o)
 .text.vfscanf  0x00000000      0x990 c:/nxp/mcuxpressoide_11.6.0_8187/ide/plugins/com.nxp.mcuxpresso.tools.win32_11.6.0.202112161359/tools/bin/../lib/gcc/arm-none-eabi/10.3.1/../../../../arm-none-eabi/lib/thumb/v7e-m+fp/hard\libcr_c.a(scanf.o)
 .text._ncc_vfscanf
                0x00000000        0x4 c:/nxp/mcuxpressoide_11.6.0_8187/ide/plugins/com.nxp.mcuxpresso.tools.win32_11.6.0.202112161359/tools/bin/../lib/gcc/arm-none-eabi/10.3.1/../../../../arm-none-eabi/lib/thumb/v7e-m+fp/hard\libcr_c.a(scanf.o)
 .text.fscanf   0x00000000       0x1a c:/nxp/mcuxpressoide_11.6.0_8187/ide/plugins/com.nxp.mcuxpresso.tools.win32_11.6.0.202112161359/tools/bin/../lib/gcc/arm-none-eabi/10.3.1/../../../../arm-none-eabi/lib/thumb/v7e-m+fp/hard\libcr_c.a(scanf.o)
 .text.scanf    0x00000000       0x20 c:/nxp/mcuxpressoide_11.6.0_8187/ide/plugins/com.nxp.mcuxpresso.tools.win32_11.6.0.202112161359/tools/bin/../lib/gcc/arm-none-eabi/10.3.1/../../../../arm-none-eabi/lib/thumb/v7e-m+fp/hard\libcr_c.a(scanf.o)
 .text.sscanf   0x00000000       0x3e c:/nxp/mcuxpressoide_11.6.0_8187/ide/plugins/com.nxp.mcuxpresso.tools.win32_11.6.0.202112161359/tools/bin/../lib/gcc/arm-none-eabi/10.3.1/../../../../arm-none-eabi/lib/thumb/v7e-m+fp/hard\libcr_c.a(scanf.o)
 .rodata.strtod.str1.1
                0x00000000        0x6 c:/nxp/mcuxpressoide_11.6.0_8187/ide/plugins/com.nxp.mcuxpresso.tools.win32_11.6.0.202112161359/tools/bin/../lib/gcc/arm-none-eabi/10.3.1/../../../../arm-none-eabi/lib/thumb/v7e-m+fp/hard\libcr_c.a(scanf.o)
 .text.strtod   0x00000000       0x3c c:/nxp/mcuxpressoide_11.6.0_8187/ide/plugins/com.nxp.mcuxpresso.tools.win32_11.6.0.202112161359/tools/bin/../lib/gcc/arm-none-eabi/10.3.1/../../../../arm-none-eabi/lib/thumb/v7e-m+fp/hard\libcr_c.a(scanf.o)
 .text.strtof   0x00000000       0x14 c:/nxp/mcuxpressoide_11.6.0_8187/ide/plugins/com.nxp.mcuxpresso.tools.win32_11.6.0.202112161359/tools/bin/../lib/gcc/arm-none-eabi/10.3.1/../../../../arm-none-eabi/lib/thumb/v7e-m+fp/hard\libcr_c.a(scanf.o)
 .text.strtol   0x00000000       0x7c c:/nxp/mcuxpressoide_11.6.0_8187/ide/plugins/com.nxp.mcuxpresso.tools.win32_11.6.0.202112161359/tools/bin/../lib/gcc/arm-none-eabi/10.3.1/../../../../arm-none-eabi/lib/thumb/v7e-m+fp/hard\libcr_c.a(scanf.o)
 .text.strtoul  0x00000000       0x88 c:/nxp/mcuxpressoide_11.6.0_8187/ide/plugins/com.nxp.mcuxpresso.tools.win32_11.6.0.202112161359/tools/bin/../lib/gcc/arm-none-eabi/10.3.1/../../../../arm-none-eabi/lib/thumb/v7e-m+fp/hard\libcr_c.a(scanf.o)
 .text.atof     0x00000000       0x14 c:/nxp/mcuxpressoide_11.6.0_8187/ide/plugins/com.nxp.mcuxpresso.tools.win32_11.6.0.202112161359/tools/bin/../lib/gcc/arm-none-eabi/10.3.1/../../../../arm-none-eabi/lib/thumb/v7e-m+fp/hard\libcr_c.a(scanf.o)
 .text.atoi     0x00000000       0x18 c:/nxp/mcuxpressoide_11.6.0_8187/ide/plugins/com.nxp.mcuxpresso.tools.win32_11.6.0.202112161359/tools/bin/../lib/gcc/arm-none-eabi/10.3.1/../../../../arm-none-eabi/lib/thumb/v7e-m+fp/hard\libcr_c.a(scanf.o)
 .text.atol     0x00000000        0x4 c:/nxp/mcuxpressoide_11.6.0_8187/ide/plugins/com.nxp.mcuxpresso.tools.win32_11.6.0.202112161359/tools/bin/../lib/gcc/arm-none-eabi/10.3.1/../../../../arm-none-eabi/lib/thumb/v7e-m+fp/hard\libcr_c.a(scanf.o)
 .data.neginf.0
                0x00000000        0x4 c:/nxp/mcuxpressoide_11.6.0_8187/ide/plugins/com.nxp.mcuxpresso.tools.win32_11.6.0.202112161359/tools/bin/../lib/gcc/arm-none-eabi/10.3.1/../../../../arm-none-eabi/lib/thumb/v7e-m+fp/hard\libcr_c.a(scanf.o)
 .data.posinf.1
                0x00000000        0x4 c:/nxp/mcuxpressoide_11.6.0_8187/ide/plugins/com.nxp.mcuxpresso.tools.win32_11.6.0.202112161359/tools/bin/../lib/gcc/arm-none-eabi/10.3.1/../../../../arm-none-eabi/lib/thumb/v7e-m+fp/hard\libcr_c.a(scanf.o)
 .comment       0x00000000       0x4a c:/nxp/mcuxpressoide_11.6.0_8187/ide/plugins/com.nxp.mcuxpresso.tools.win32_11.6.0.202112161359/tools/bin/../lib/gcc/arm-none-eabi/10.3.1/../../../../arm-none-eabi/lib/thumb/v7e-m+fp/hard\libcr_c.a(scanf.o)
 .ARM.attributes
                0x00000000       0x34 c:/nxp/mcuxpressoide_11.6.0_8187/ide/plugins/com.nxp.mcuxpresso.tools.win32_11.6.0.202112161359/tools/bin/../lib/gcc/arm-none-eabi/10.3.1/../../../../arm-none-eabi/lib/thumb/v7e-m+fp/hard\libcr_c.a(scanf.o)
 .text          0x00000000        0x0 c:/nxp/mcuxpressoide_11.6.0_8187/ide/plugins/com.nxp.mcuxpresso.tools.win32_11.6.0.202112161359/tools/bin/../lib/gcc/arm-none-eabi/10.3.1/../../../../arm-none-eabi/lib/thumb/v7e-m+fp/hard\libcr_c.a(setvbuf.o)
 .data          0x00000000        0x0 c:/nxp/mcuxpressoide_11.6.0_8187/ide/plugins/com.nxp.mcuxpresso.tools.win32_11.6.0.202112161359/tools/bin/../lib/gcc/arm-none-eabi/10.3.1/../../../../arm-none-eabi/lib/thumb/v7e-m+fp/hard\libcr_c.a(setvbuf.o)
 .bss           0x00000000        0x0 c:/nxp/mcuxpressoide_11.6.0_8187/ide/plugins/com.nxp.mcuxpresso.tools.win32_11.6.0.202112161359/tools/bin/../lib/gcc/arm-none-eabi/10.3.1/../../../../arm-none-eabi/lib/thumb/v7e-m+fp/hard\libcr_c.a(setvbuf.o)
 .text          0x00000000        0x0 c:/nxp/mcuxpressoide_11.6.0_8187/ide/plugins/com.nxp.mcuxpresso.tools.win32_11.6.0.202112161359/tools/bin/../lib/gcc/arm-none-eabi/10.3.1/../../../../arm-none-eabi/lib/thumb/v7e-m+fp/hard\libcr_c.a(strlen.o)
 .data          0x00000000        0x0 c:/nxp/mcuxpressoide_11.6.0_8187/ide/plugins/com.nxp.mcuxpresso.tools.win32_11.6.0.202112161359/tools/bin/../lib/gcc/arm-none-eabi/10.3.1/../../../../arm-none-eabi/lib/thumb/v7e-m+fp/hard\libcr_c.a(strlen.o)
 .bss           0x00000000        0x0 c:/nxp/mcuxpressoide_11.6.0_8187/ide/plugins/com.nxp.mcuxpresso.tools.win32_11.6.0.202112161359/tools/bin/../lib/gcc/arm-none-eabi/10.3.1/../../../../arm-none-eabi/lib/thumb/v7e-m+fp/hard\libcr_c.a(strlen.o)
 .text          0x00000000        0x0 c:/nxp/mcuxpressoide_11.6.0_8187/ide/plugins/com.nxp.mcuxpresso.tools.win32_11.6.0.202112161359/tools/bin/../lib/gcc/arm-none-eabi/10.3.1/../../../../arm-none-eabi/lib/thumb/v7e-m+fp/hard\libcr_c.a(ungetc.o)
 .data          0x00000000        0x0 c:/nxp/mcuxpressoide_11.6.0_8187/ide/plugins/com.nxp.mcuxpresso.tools.win32_11.6.0.202112161359/tools/bin/../lib/gcc/arm-none-eabi/10.3.1/../../../../arm-none-eabi/lib/thumb/v7e-m+fp/hard\libcr_c.a(ungetc.o)
 .bss           0x00000000        0x0 c:/nxp/mcuxpressoide_11.6.0_8187/ide/plugins/com.nxp.mcuxpresso.tools.win32_11.6.0.202112161359/tools/bin/../lib/gcc/arm-none-eabi/10.3.1/../../../../arm-none-eabi/lib/thumb/v7e-m+fp/hard\libcr_c.a(ungetc.o)
 .text.ungetc   0x00000000       0x32 c:/nxp/mcuxpressoide_11.6.0_8187/ide/plugins/com.nxp.mcuxpresso.tools.win32_11.6.0.202112161359/tools/bin/../lib/gcc/arm-none-eabi/10.3.1/../../../../arm-none-eabi/lib/thumb/v7e-m+fp/hard\libcr_c.a(ungetc.o)
 .comment       0x00000000       0x4a c:/nxp/mcuxpressoide_11.6.0_8187/ide/plugins/com.nxp.mcuxpresso.tools.win32_11.6.0.202112161359/tools/bin/../lib/gcc/arm-none-eabi/10.3.1/../../../../arm-none-eabi/lib/thumb/v7e-m+fp/hard\libcr_c.a(ungetc.o)
 .ARM.attributes
                0x00000000       0x34 c:/nxp/mcuxpressoide_11.6.0_8187/ide/plugins/com.nxp.mcuxpresso.tools.win32_11.6.0.202112161359/tools/bin/../lib/gcc/arm-none-eabi/10.3.1/../../../../arm-none-eabi/lib/thumb/v7e-m+fp/hard\libcr_c.a(ungetc.o)
 .text          0x00000000        0x0 c:/nxp/mcuxpressoide_11.6.0_8187/ide/plugins/com.nxp.mcuxpresso.tools.win32_11.6.0.202112161359/tools/bin/../lib/gcc/arm-none-eabi/10.3.1/../../../../arm-none-eabi/lib/thumb/v7e-m+fp/hard\libcr_c.a(__fillbuf.o)
 .data          0x00000000        0x0 c:/nxp/mcuxpressoide_11.6.0_8187/ide/plugins/com.nxp.mcuxpresso.tools.win32_11.6.0.202112161359/tools/bin/../lib/gcc/arm-none-eabi/10.3.1/../../../../arm-none-eabi/lib/thumb/v7e-m+fp/hard\libcr_c.a(__fillbuf.o)
 .bss           0x00000000        0x0 c:/nxp/mcuxpressoide_11.6.0_8187/ide/plugins/com.nxp.mcuxpresso.tools.win32_11.6.0.202112161359/tools/bin/../lib/gcc/arm-none-eabi/10.3.1/../../../../arm-none-eabi/lib/thumb/v7e-m+fp/hard\libcr_c.a(__fillbuf.o)
 .text._Csys_read_
                0x00000000       0x22 c:/nxp/mcuxpressoide_11.6.0_8187/ide/plugins/com.nxp.mcuxpresso.tools.win32_11.6.0.202112161359/tools/bin/../lib/gcc/arm-none-eabi/10.3.1/../../../../arm-none-eabi/lib/thumb/v7e-m+fp/hard\libcr_c.a(__fillbuf.o)
 .text.__filbuf
                0x00000000      0x178 c:/nxp/mcuxpressoide_11.6.0_8187/ide/plugins/com.nxp.mcuxpresso.tools.win32_11.6.0.202112161359/tools/bin/../lib/gcc/arm-none-eabi/10.3.1/../../../../arm-none-eabi/lib/thumb/v7e-m+fp/hard\libcr_c.a(__fillbuf.o)
 .text._fillb2  0x00000000       0x1c c:/nxp/mcuxpressoide_11.6.0_8187/ide/plugins/com.nxp.mcuxpresso.tools.win32_11.6.0.202112161359/tools/bin/../lib/gcc/arm-none-eabi/10.3.1/../../../../arm-none-eabi/lib/thumb/v7e-m+fp/hard\libcr_c.a(__fillbuf.o)
 .comment       0x00000000       0x4a c:/nxp/mcuxpressoide_11.6.0_8187/ide/plugins/com.nxp.mcuxpresso.tools.win32_11.6.0.202112161359/tools/bin/../lib/gcc/arm-none-eabi/10.3.1/../../../../arm-none-eabi/lib/thumb/v7e-m+fp/hard\libcr_c.a(__fillbuf.o)
 .ARM.attributes
                0x00000000       0x34 c:/nxp/mcuxpressoide_11.6.0_8187/ide/plugins/com.nxp.mcuxpresso.tools.win32_11.6.0.202112161359/tools/bin/../lib/gcc/arm-none-eabi/10.3.1/../../../../arm-none-eabi/lib/thumb/v7e-m+fp/hard\libcr_c.a(__fillbuf.o)
 .text          0x00000000        0x0 c:/nxp/mcuxpressoide_11.6.0_8187/ide/plugins/com.nxp.mcuxpresso.tools.win32_11.6.0.202112161359/tools/bin/../lib/gcc/arm-none-eabi/10.3.1/../../../../arm-none-eabi/lib/thumb/v7e-m+fp/hard\libcr_c.a(__init_alloc.o)
 .data          0x00000000        0x0 c:/nxp/mcuxpressoide_11.6.0_8187/ide/plugins/com.nxp.mcuxpresso.tools.win32_11.6.0.202112161359/tools/bin/../lib/gcc/arm-none-eabi/10.3.1/../../../../arm-none-eabi/lib/thumb/v7e-m+fp/hard\libcr_c.a(__init_alloc.o)
 .bss           0x00000000        0x0 c:/nxp/mcuxpressoide_11.6.0_8187/ide/plugins/com.nxp.mcuxpresso.tools.win32_11.6.0.202112161359/tools/bin/../lib/gcc/arm-none-eabi/10.3.1/../../../../arm-none-eabi/lib/thumb/v7e-m+fp/hard\libcr_c.a(__init_alloc.o)
 .text._init_alloc
                0x00000000       0x14 c:/nxp/mcuxpressoide_11.6.0_8187/ide/plugins/com.nxp.mcuxpresso.tools.win32_11.6.0.202112161359/tools/bin/../lib/gcc/arm-none-eabi/10.3.1/../../../../arm-none-eabi/lib/thumb/v7e-m+fp/hard\libcr_c.a(__init_alloc.o)
 .bss.__end_of_heap
                0x00000000        0x4 c:/nxp/mcuxpressoide_11.6.0_8187/ide/plugins/com.nxp.mcuxpresso.tools.win32_11.6.0.202112161359/tools/bin/../lib/gcc/arm-none-eabi/10.3.1/../../../../arm-none-eabi/lib/thumb/v7e-m+fp/hard\libcr_c.a(__init_alloc.o)
 .bss.__heaps   0x00000000        0x4 c:/nxp/mcuxpressoide_11.6.0_8187/ide/plugins/com.nxp.mcuxpresso.tools.win32_11.6.0.202112161359/tools/bin/../lib/gcc/arm-none-eabi/10.3.1/../../../../arm-none-eabi/lib/thumb/v7e-m+fp/hard\libcr_c.a(__init_alloc.o)
 .comment       0x00000000       0x4a c:/nxp/mcuxpressoide_11.6.0_8187/ide/plugins/com.nxp.mcuxpresso.tools.win32_11.6.0.202112161359/tools/bin/../lib/gcc/arm-none-eabi/10.3.1/../../../../arm-none-eabi/lib/thumb/v7e-m+fp/hard\libcr_c.a(__init_alloc.o)
 .ARM.attributes
                0x00000000       0x34 c:/nxp/mcuxpressoide_11.6.0_8187/ide/plugins/com.nxp.mcuxpresso.tools.win32_11.6.0.202112161359/tools/bin/../lib/gcc/arm-none-eabi/10.3.1/../../../../arm-none-eabi/lib/thumb/v7e-m+fp/hard\libcr_c.a(__init_alloc.o)
 .text          0x00000000        0x0 c:/nxp/mcuxpressoide_11.6.0_8187/ide/plugins/com.nxp.mcuxpresso.tools.win32_11.6.0.202112161359/tools/bin/../lib/gcc/arm-none-eabi/10.3.1/../../../../arm-none-eabi/lib/thumb/v7e-m+fp/hard\libcr_c.a(_cr_sbrk.o)
 .data          0x00000000        0x0 c:/nxp/mcuxpressoide_11.6.0_8187/ide/plugins/com.nxp.mcuxpresso.tools.win32_11.6.0.202112161359/tools/bin/../lib/gcc/arm-none-eabi/10.3.1/../../../../arm-none-eabi/lib/thumb/v7e-m+fp/hard\libcr_c.a(_cr_sbrk.o)
 .bss           0x00000000        0x0 c:/nxp/mcuxpressoide_11.6.0_8187/ide/plugins/com.nxp.mcuxpresso.tools.win32_11.6.0.202112161359/tools/bin/../lib/gcc/arm-none-eabi/10.3.1/../../../../arm-none-eabi/lib/thumb/v7e-m+fp/hard\libcr_c.a(_cr_sbrk.o)
 .text._sbrk    0x00000000       0x3c c:/nxp/mcuxpressoide_11.6.0_8187/ide/plugins/com.nxp.mcuxpresso.tools.win32_11.6.0.202112161359/tools/bin/../lib/gcc/arm-none-eabi/10.3.1/../../../../arm-none-eabi/lib/thumb/v7e-m+fp/hard\libcr_c.a(_cr_sbrk.o)
 .comment       0x00000000       0x4a c:/nxp/mcuxpressoide_11.6.0_8187/ide/plugins/com.nxp.mcuxpresso.tools.win32_11.6.0.202112161359/tools/bin/../lib/gcc/arm-none-eabi/10.3.1/../../../../arm-none-eabi/lib/thumb/v7e-m+fp/hard\libcr_c.a(_cr_sbrk.o)
 .ARM.attributes
                0x00000000       0x34 c:/nxp/mcuxpressoide_11.6.0_8187/ide/plugins/com.nxp.mcuxpresso.tools.win32_11.6.0.202112161359/tools/bin/../lib/gcc/arm-none-eabi/10.3.1/../../../../arm-none-eabi/lib/thumb/v7e-m+fp/hard\libcr_c.a(_cr_sbrk.o)
 .text          0x00000000        0x0 c:/nxp/mcuxpressoide_11.6.0_8187/ide/plugins/com.nxp.mcuxpresso.tools.win32_11.6.0.202112161359/tools/bin/../lib/gcc/arm-none-eabi/10.3.1/../../../../arm-none-eabi/lib/thumb/v7e-m+fp/hard\libcr_c.a(_deferredlazyseek.o)
 .data          0x00000000        0x0 c:/nxp/mcuxpressoide_11.6.0_8187/ide/plugins/com.nxp.mcuxpresso.tools.win32_11.6.0.202112161359/tools/bin/../lib/gcc/arm-none-eabi/10.3.1/../../../../arm-none-eabi/lib/thumb/v7e-m+fp/hard\libcr_c.a(_deferredlazyseek.o)
 .bss           0x00000000        0x0 c:/nxp/mcuxpressoide_11.6.0_8187/ide/plugins/com.nxp.mcuxpresso.tools.win32_11.6.0.202112161359/tools/bin/../lib/gcc/arm-none-eabi/10.3.1/../../../../arm-none-eabi/lib/thumb/v7e-m+fp/hard\libcr_c.a(_deferredlazyseek.o)
 .text.__flsbuf
                0x00000000      0x140 c:/nxp/mcuxpressoide_11.6.0_8187/ide/plugins/com.nxp.mcuxpresso.tools.win32_11.6.0.202112161359/tools/bin/../lib/gcc/arm-none-eabi/10.3.1/../../../../arm-none-eabi/lib/thumb/v7e-m+fp/hard\libcr_c.a(_deferredlazyseek.o)
 .text          0x00000000        0x0 c:/nxp/mcuxpressoide_11.6.0_8187/ide/plugins/com.nxp.mcuxpresso.tools.win32_11.6.0.202112161359/tools/bin/../lib/gcc/arm-none-eabi/10.3.1/../../../../arm-none-eabi/lib/thumb/v7e-m+fp/hard\libcr_c.a(_fdopen.o)
 .data          0x00000000        0x0 c:/nxp/mcuxpressoide_11.6.0_8187/ide/plugins/com.nxp.mcuxpresso.tools.win32_11.6.0.202112161359/tools/bin/../lib/gcc/arm-none-eabi/10.3.1/../../../../arm-none-eabi/lib/thumb/v7e-m+fp/hard\libcr_c.a(_fdopen.o)
 .bss           0x00000000        0x0 c:/nxp/mcuxpressoide_11.6.0_8187/ide/plugins/com.nxp.mcuxpresso.tools.win32_11.6.0.202112161359/tools/bin/../lib/gcc/arm-none-eabi/10.3.1/../../../../arm-none-eabi/lib/thumb/v7e-m+fp/hard\libcr_c.a(_fdopen.o)
 .text          0x00000000        0x0 c:/nxp/mcuxpressoide_11.6.0_8187/ide/plugins/com.nxp.mcuxpresso.tools.win32_11.6.0.202112161359/tools/bin/../lib/gcc/arm-none-eabi/10.3.1/../../../../arm-none-eabi/lib/thumb/v7e-m+fp/hard\libcr_c.a(_fflush.o)
 .data          0x00000000        0x0 c:/nxp/mcuxpressoide_11.6.0_8187/ide/plugins/com.nxp.mcuxpresso.tools.win32_11.6.0.202112161359/tools/bin/../lib/gcc/arm-none-eabi/10.3.1/../../../../arm-none-eabi/lib/thumb/v7e-m+fp/hard\libcr_c.a(_fflush.o)
 .bss           0x00000000        0x0 c:/nxp/mcuxpressoide_11.6.0_8187/ide/plugins/com.nxp.mcuxpresso.tools.win32_11.6.0.202112161359/tools/bin/../lib/gcc/arm-none-eabi/10.3.1/../../../../arm-none-eabi/lib/thumb/v7e-m+fp/hard\libcr_c.a(_fflush.o)
 .text          0x00000000        0x0 c:/nxp/mcuxpressoide_11.6.0_8187/ide/plugins/com.nxp.mcuxpresso.tools.win32_11.6.0.202112161359/tools/bin/../lib/gcc/arm-none-eabi/10.3.1/../../../../arm-none-eabi/lib/thumb/v7e-m+fp/hard\libcr_c.a(_frexpl.o)
 .data          0x00000000        0x0 c:/nxp/mcuxpressoide_11.6.0_8187/ide/plugins/com.nxp.mcuxpresso.tools.win32_11.6.0.202112161359/tools/bin/../lib/gcc/arm-none-eabi/10.3.1/../../../../arm-none-eabi/lib/thumb/v7e-m+fp/hard\libcr_c.a(_frexpl.o)
 .bss           0x00000000        0x0 c:/nxp/mcuxpressoide_11.6.0_8187/ide/plugins/com.nxp.mcuxpresso.tools.win32_11.6.0.202112161359/tools/bin/../lib/gcc/arm-none-eabi/10.3.1/../../../../arm-none-eabi/lib/thumb/v7e-m+fp/hard\libcr_c.a(_frexpl.o)
 .text._frexpl  0x00000000       0x68 c:/nxp/mcuxpressoide_11.6.0_8187/ide/plugins/com.nxp.mcuxpresso.tools.win32_11.6.0.202112161359/tools/bin/../lib/gcc/arm-none-eabi/10.3.1/../../../../arm-none-eabi/lib/thumb/v7e-m+fp/hard\libcr_c.a(_frexpl.o)
 .comment       0x00000000       0x4a c:/nxp/mcuxpressoide_11.6.0_8187/ide/plugins/com.nxp.mcuxpresso.tools.win32_11.6.0.202112161359/tools/bin/../lib/gcc/arm-none-eabi/10.3.1/../../../../arm-none-eabi/lib/thumb/v7e-m+fp/hard\libcr_c.a(_frexpl.o)
 .ARM.attributes
                0x00000000       0x34 c:/nxp/mcuxpressoide_11.6.0_8187/ide/plugins/com.nxp.mcuxpresso.tools.win32_11.6.0.202112161359/tools/bin/../lib/gcc/arm-none-eabi/10.3.1/../../../../arm-none-eabi/lib/thumb/v7e-m+fp/hard\libcr_c.a(_frexpl.o)
 .text          0x00000000        0x0 c:/nxp/mcuxpressoide_11.6.0_8187/ide/plugins/com.nxp.mcuxpresso.tools.win32_11.6.0.202112161359/tools/bin/../lib/gcc/arm-none-eabi/10.3.1/../../../../arm-none-eabi/lib/thumb/v7e-m+fp/hard\libcr_c.a(_ldexpl.o)
 .data          0x00000000        0x0 c:/nxp/mcuxpressoide_11.6.0_8187/ide/plugins/com.nxp.mcuxpresso.tools.win32_11.6.0.202112161359/tools/bin/../lib/gcc/arm-none-eabi/10.3.1/../../../../arm-none-eabi/lib/thumb/v7e-m+fp/hard\libcr_c.a(_ldexpl.o)
 .bss           0x00000000        0x0 c:/nxp/mcuxpressoide_11.6.0_8187/ide/plugins/com.nxp.mcuxpresso.tools.win32_11.6.0.202112161359/tools/bin/../lib/gcc/arm-none-eabi/10.3.1/../../../../arm-none-eabi/lib/thumb/v7e-m+fp/hard\libcr_c.a(_ldexpl.o)
 .text._ldexpl  0x00000000       0x5c c:/nxp/mcuxpressoide_11.6.0_8187/ide/plugins/com.nxp.mcuxpresso.tools.win32_11.6.0.202112161359/tools/bin/../lib/gcc/arm-none-eabi/10.3.1/../../../../arm-none-eabi/lib/thumb/v7e-m+fp/hard\libcr_c.a(_ldexpl.o)
 .comment       0x00000000       0x4a c:/nxp/mcuxpressoide_11.6.0_8187/ide/plugins/com.nxp.mcuxpresso.tools.win32_11.6.0.202112161359/tools/bin/../lib/gcc/arm-none-eabi/10.3.1/../../../../arm-none-eabi/lib/thumb/v7e-m+fp/hard\libcr_c.a(_ldexpl.o)
 .ARM.attributes
                0x00000000       0x34 c:/nxp/mcuxpressoide_11.6.0_8187/ide/plugins/com.nxp.mcuxpresso.tools.win32_11.6.0.202112161359/tools/bin/../lib/gcc/arm-none-eabi/10.3.1/../../../../arm-none-eabi/lib/thumb/v7e-m+fp/hard\libcr_c.a(_ldexpl.o)
 .text          0x00000000        0x0 c:/nxp/mcuxpressoide_11.6.0_8187/ide/plugins/com.nxp.mcuxpresso.tools.win32_11.6.0.202112161359/tools/bin/../lib/gcc/arm-none-eabi/10.3.1/../../../../arm-none-eabi/lib/thumb/v7e-m+fp/hard\libcr_c.a(_writebuf.o)
 .data          0x00000000        0x0 c:/nxp/mcuxpressoide_11.6.0_8187/ide/plugins/com.nxp.mcuxpresso.tools.win32_11.6.0.202112161359/tools/bin/../lib/gcc/arm-none-eabi/10.3.1/../../../../arm-none-eabi/lib/thumb/v7e-m+fp/hard\libcr_c.a(_writebuf.o)
 .bss           0x00000000        0x0 c:/nxp/mcuxpressoide_11.6.0_8187/ide/plugins/com.nxp.mcuxpresso.tools.win32_11.6.0.202112161359/tools/bin/../lib/gcc/arm-none-eabi/10.3.1/../../../../arm-none-eabi/lib/thumb/v7e-m+fp/hard\libcr_c.a(_writebuf.o)
 .text          0x00000000        0x0 c:/nxp/mcuxpressoide_11.6.0_8187/ide/plugins/com.nxp.mcuxpresso.tools.win32_11.6.0.202112161359/tools/bin/../lib/gcc/arm-none-eabi/10.3.1/../../../../arm-none-eabi/lib/thumb/v7e-m+fp/hard\libcr_c.a(ctype.o)
 .data          0x00000000        0x0 c:/nxp/mcuxpressoide_11.6.0_8187/ide/plugins/com.nxp.mcuxpresso.tools.win32_11.6.0.202112161359/tools/bin/../lib/gcc/arm-none-eabi/10.3.1/../../../../arm-none-eabi/lib/thumb/v7e-m+fp/hard\libcr_c.a(ctype.o)
 .bss           0x00000000        0x0 c:/nxp/mcuxpressoide_11.6.0_8187/ide/plugins/com.nxp.mcuxpresso.tools.win32_11.6.0.202112161359/tools/bin/../lib/gcc/arm-none-eabi/10.3.1/../../../../arm-none-eabi/lib/thumb/v7e-m+fp/hard\libcr_c.a(ctype.o)
 .text.isalnum  0x00000000       0x14 c:/nxp/mcuxpressoide_11.6.0_8187/ide/plugins/com.nxp.mcuxpresso.tools.win32_11.6.0.202112161359/tools/bin/../lib/gcc/arm-none-eabi/10.3.1/../../../../arm-none-eabi/lib/thumb/v7e-m+fp/hard\libcr_c.a(ctype.o)
 .text.isalpha  0x00000000       0x14 c:/nxp/mcuxpressoide_11.6.0_8187/ide/plugins/com.nxp.mcuxpresso.tools.win32_11.6.0.202112161359/tools/bin/../lib/gcc/arm-none-eabi/10.3.1/../../../../arm-none-eabi/lib/thumb/v7e-m+fp/hard\libcr_c.a(ctype.o)
 .text.iscntrl  0x00000000       0x14 c:/nxp/mcuxpressoide_11.6.0_8187/ide/plugins/com.nxp.mcuxpresso.tools.win32_11.6.0.202112161359/tools/bin/../lib/gcc/arm-none-eabi/10.3.1/../../../../arm-none-eabi/lib/thumb/v7e-m+fp/hard\libcr_c.a(ctype.o)
 .text.isdigit  0x00000000       0x14 c:/nxp/mcuxpressoide_11.6.0_8187/ide/plugins/com.nxp.mcuxpresso.tools.win32_11.6.0.202112161359/tools/bin/../lib/gcc/arm-none-eabi/10.3.1/../../../../arm-none-eabi/lib/thumb/v7e-m+fp/hard\libcr_c.a(ctype.o)
 .text.isgraph  0x00000000       0x14 c:/nxp/mcuxpressoide_11.6.0_8187/ide/plugins/com.nxp.mcuxpresso.tools.win32_11.6.0.202112161359/tools/bin/../lib/gcc/arm-none-eabi/10.3.1/../../../../arm-none-eabi/lib/thumb/v7e-m+fp/hard\libcr_c.a(ctype.o)
 .text.islower  0x00000000       0x14 c:/nxp/mcuxpressoide_11.6.0_8187/ide/plugins/com.nxp.mcuxpresso.tools.win32_11.6.0.202112161359/tools/bin/../lib/gcc/arm-none-eabi/10.3.1/../../../../arm-none-eabi/lib/thumb/v7e-m+fp/hard\libcr_c.a(ctype.o)
 .text.isprint  0x00000000       0x14 c:/nxp/mcuxpressoide_11.6.0_8187/ide/plugins/com.nxp.mcuxpresso.tools.win32_11.6.0.202112161359/tools/bin/../lib/gcc/arm-none-eabi/10.3.1/../../../../arm-none-eabi/lib/thumb/v7e-m+fp/hard\libcr_c.a(ctype.o)
 .text.ispunct  0x00000000       0x14 c:/nxp/mcuxpressoide_11.6.0_8187/ide/plugins/com.nxp.mcuxpresso.tools.win32_11.6.0.202112161359/tools/bin/../lib/gcc/arm-none-eabi/10.3.1/../../../../arm-none-eabi/lib/thumb/v7e-m+fp/hard\libcr_c.a(ctype.o)
 .text.isspace  0x00000000       0x14 c:/nxp/mcuxpressoide_11.6.0_8187/ide/plugins/com.nxp.mcuxpresso.tools.win32_11.6.0.202112161359/tools/bin/../lib/gcc/arm-none-eabi/10.3.1/../../../../arm-none-eabi/lib/thumb/v7e-m+fp/hard\libcr_c.a(ctype.o)
 .text.isupper  0x00000000       0x14 c:/nxp/mcuxpressoide_11.6.0_8187/ide/plugins/com.nxp.mcuxpresso.tools.win32_11.6.0.202112161359/tools/bin/../lib/gcc/arm-none-eabi/10.3.1/../../../../arm-none-eabi/lib/thumb/v7e-m+fp/hard\libcr_c.a(ctype.o)
 .text.isxdigit
                0x00000000       0x14 c:/nxp/mcuxpressoide_11.6.0_8187/ide/plugins/com.nxp.mcuxpresso.tools.win32_11.6.0.202112161359/tools/bin/../lib/gcc/arm-none-eabi/10.3.1/../../../../arm-none-eabi/lib/thumb/v7e-m+fp/hard\libcr_c.a(ctype.o)
 .text.tolower  0x00000000       0x14 c:/nxp/mcuxpressoide_11.6.0_8187/ide/plugins/com.nxp.mcuxpresso.tools.win32_11.6.0.202112161359/tools/bin/../lib/gcc/arm-none-eabi/10.3.1/../../../../arm-none-eabi/lib/thumb/v7e-m+fp/hard\libcr_c.a(ctype.o)
 .text.toupper  0x00000000       0x14 c:/nxp/mcuxpressoide_11.6.0_8187/ide/plugins/com.nxp.mcuxpresso.tools.win32_11.6.0.202112161359/tools/bin/../lib/gcc/arm-none-eabi/10.3.1/../../../../arm-none-eabi/lib/thumb/v7e-m+fp/hard\libcr_c.a(ctype.o)
 .rodata.__ctype
                0x00000000      0x180 c:/nxp/mcuxpressoide_11.6.0_8187/ide/plugins/com.nxp.mcuxpresso.tools.win32_11.6.0.202112161359/tools/bin/../lib/gcc/arm-none-eabi/10.3.1/../../../../arm-none-eabi/lib/thumb/v7e-m+fp/hard\libcr_c.a(ctype.o)
 .comment       0x00000000       0x4a c:/nxp/mcuxpressoide_11.6.0_8187/ide/plugins/com.nxp.mcuxpresso.tools.win32_11.6.0.202112161359/tools/bin/../lib/gcc/arm-none-eabi/10.3.1/../../../../arm-none-eabi/lib/thumb/v7e-m+fp/hard\libcr_c.a(ctype.o)
 .ARM.attributes
                0x00000000       0x34 c:/nxp/mcuxpressoide_11.6.0_8187/ide/plugins/com.nxp.mcuxpresso.tools.win32_11.6.0.202112161359/tools/bin/../lib/gcc/arm-none-eabi/10.3.1/../../../../arm-none-eabi/lib/thumb/v7e-m+fp/hard\libcr_c.a(ctype.o)
 .text          0x00000000        0x0 c:/nxp/mcuxpressoide_11.6.0_8187/ide/plugins/com.nxp.mcuxpresso.tools.win32_11.6.0.202112161359/tools/bin/../lib/gcc/arm-none-eabi/10.3.1/../../../../arm-none-eabi/lib/thumb/v7e-m+fp/hard\libcr_c.a(fclose.o)
 .data          0x00000000        0x0 c:/nxp/mcuxpressoide_11.6.0_8187/ide/plugins/com.nxp.mcuxpresso.tools.win32_11.6.0.202112161359/tools/bin/../lib/gcc/arm-none-eabi/10.3.1/../../../../arm-none-eabi/lib/thumb/v7e-m+fp/hard\libcr_c.a(fclose.o)
 .bss           0x00000000        0x0 c:/nxp/mcuxpressoide_11.6.0_8187/ide/plugins/com.nxp.mcuxpresso.tools.win32_11.6.0.202112161359/tools/bin/../lib/gcc/arm-none-eabi/10.3.1/../../../../arm-none-eabi/lib/thumb/v7e-m+fp/hard\libcr_c.a(fclose.o)
 .text          0x00000000        0x0 c:/nxp/mcuxpressoide_11.6.0_8187/ide/plugins/com.nxp.mcuxpresso.tools.win32_11.6.0.202112161359/tools/bin/../lib/gcc/arm-none-eabi/10.3.1/../../../../arm-none-eabi/lib/thumb/v7e-m+fp/hard\libcr_c.a(fflush.o)
 .data          0x00000000        0x0 c:/nxp/mcuxpressoide_11.6.0_8187/ide/plugins/com.nxp.mcuxpresso.tools.win32_11.6.0.202112161359/tools/bin/../lib/gcc/arm-none-eabi/10.3.1/../../../../arm-none-eabi/lib/thumb/v7e-m+fp/hard\libcr_c.a(fflush.o)
 .bss           0x00000000        0x0 c:/nxp/mcuxpressoide_11.6.0_8187/ide/plugins/com.nxp.mcuxpresso.tools.win32_11.6.0.202112161359/tools/bin/../lib/gcc/arm-none-eabi/10.3.1/../../../../arm-none-eabi/lib/thumb/v7e-m+fp/hard\libcr_c.a(fflush.o)
 .text          0x00000000        0x0 c:/nxp/mcuxpressoide_11.6.0_8187/ide/plugins/com.nxp.mcuxpresso.tools.win32_11.6.0.202112161359/tools/bin/../lib/gcc/arm-none-eabi/10.3.1/../../../../arm-none-eabi/lib/thumb/v7e-m+fp/hard\libcr_c.a(fseek.o)
 .data          0x00000000        0x0 c:/nxp/mcuxpressoide_11.6.0_8187/ide/plugins/com.nxp.mcuxpresso.tools.win32_11.6.0.202112161359/tools/bin/../lib/gcc/arm-none-eabi/10.3.1/../../../../arm-none-eabi/lib/thumb/v7e-m+fp/hard\libcr_c.a(fseek.o)
 .bss           0x00000000        0x0 c:/nxp/mcuxpressoide_11.6.0_8187/ide/plugins/com.nxp.mcuxpresso.tools.win32_11.6.0.202112161359/tools/bin/../lib/gcc/arm-none-eabi/10.3.1/../../../../arm-none-eabi/lib/thumb/v7e-m+fp/hard\libcr_c.a(fseek.o)
 .text          0x00000000        0x0 c:/nxp/mcuxpressoide_11.6.0_8187/ide/plugins/com.nxp.mcuxpresso.tools.win32_11.6.0.202112161359/tools/bin/../lib/gcc/arm-none-eabi/10.3.1/../../../../arm-none-eabi/lib/thumb/v7e-m+fp/hard\libcr_c.a(ftell.o)
 .data          0x00000000        0x0 c:/nxp/mcuxpressoide_11.6.0_8187/ide/plugins/com.nxp.mcuxpresso.tools.win32_11.6.0.202112161359/tools/bin/../lib/gcc/arm-none-eabi/10.3.1/../../../../arm-none-eabi/lib/thumb/v7e-m+fp/hard\libcr_c.a(ftell.o)
 .bss           0x00000000        0x0 c:/nxp/mcuxpressoide_11.6.0_8187/ide/plugins/com.nxp.mcuxpresso.tools.win32_11.6.0.202112161359/tools/bin/../lib/gcc/arm-none-eabi/10.3.1/../../../../arm-none-eabi/lib/thumb/v7e-m+fp/hard\libcr_c.a(ftell.o)
 .text          0x00000000        0x0 c:/nxp/mcuxpressoide_11.6.0_8187/ide/plugins/com.nxp.mcuxpresso.tools.win32_11.6.0.202112161359/tools/bin/../lib/gcc/arm-none-eabi/10.3.1/../../../../arm-none-eabi/lib/thumb/v7e-m+fp/hard\libcr_c.a(remove.o)
 .data          0x00000000        0x0 c:/nxp/mcuxpressoide_11.6.0_8187/ide/plugins/com.nxp.mcuxpresso.tools.win32_11.6.0.202112161359/tools/bin/../lib/gcc/arm-none-eabi/10.3.1/../../../../arm-none-eabi/lib/thumb/v7e-m+fp/hard\libcr_c.a(remove.o)
 .bss           0x00000000        0x0 c:/nxp/mcuxpressoide_11.6.0_8187/ide/plugins/com.nxp.mcuxpresso.tools.win32_11.6.0.202112161359/tools/bin/../lib/gcc/arm-none-eabi/10.3.1/../../../../arm-none-eabi/lib/thumb/v7e-m+fp/hard\libcr_c.a(remove.o)
 .text.rename   0x00000000       0x2a c:/nxp/mcuxpressoide_11.6.0_8187/ide/plugins/com.nxp.mcuxpresso.tools.win32_11.6.0.202112161359/tools/bin/../lib/gcc/arm-none-eabi/10.3.1/../../../../arm-none-eabi/lib/thumb/v7e-m+fp/hard\libcr_c.a(remove.o)
 .text          0x00000000        0x0 c:/nxp/mcuxpressoide_11.6.0_8187/ide/plugins/com.nxp.mcuxpresso.tools.win32_11.6.0.202112161359/tools/bin/../lib/gcc/arm-none-eabi/10.3.1/../../../../arm-none-eabi/lib/thumb/v7e-m+fp/hard\libcr_c.a(_cr_check_heap.o)
 .data          0x00000000        0x0 c:/nxp/mcuxpressoide_11.6.0_8187/ide/plugins/com.nxp.mcuxpresso.tools.win32_11.6.0.202112161359/tools/bin/../lib/gcc/arm-none-eabi/10.3.1/../../../../arm-none-eabi/lib/thumb/v7e-m+fp/hard\libcr_c.a(_cr_check_heap.o)
 .bss           0x00000000        0x0 c:/nxp/mcuxpressoide_11.6.0_8187/ide/plugins/com.nxp.mcuxpresso.tools.win32_11.6.0.202112161359/tools/bin/../lib/gcc/arm-none-eabi/10.3.1/../../../../arm-none-eabi/lib/thumb/v7e-m+fp/hard\libcr_c.a(_cr_check_heap.o)
 .text.__check_heap_overflow
                0x00000000       0x18 c:/nxp/mcuxpressoide_11.6.0_8187/ide/plugins/com.nxp.mcuxpresso.tools.win32_11.6.0.202112161359/tools/bin/../lib/gcc/arm-none-eabi/10.3.1/../../../../arm-none-eabi/lib/thumb/v7e-m+fp/hard\libcr_c.a(_cr_check_heap.o)
 .comment       0x00000000       0x4a c:/nxp/mcuxpressoide_11.6.0_8187/ide/plugins/com.nxp.mcuxpresso.tools.win32_11.6.0.202112161359/tools/bin/../lib/gcc/arm-none-eabi/10.3.1/../../../../arm-none-eabi/lib/thumb/v7e-m+fp/hard\libcr_c.a(_cr_check_heap.o)
 .ARM.attributes
                0x00000000       0x34 c:/nxp/mcuxpressoide_11.6.0_8187/ide/plugins/com.nxp.mcuxpresso.tools.win32_11.6.0.202112161359/tools/bin/../lib/gcc/arm-none-eabi/10.3.1/../../../../arm-none-eabi/lib/thumb/v7e-m+fp/hard\libcr_c.a(_cr_check_heap.o)
 .text          0x00000000        0x0 c:/nxp/mcuxpressoide_11.6.0_8187/ide/plugins/com.nxp.mcuxpresso.tools.win32_11.6.0.202112161359/tools/bin/../lib/gcc/arm-none-eabi/10.3.1/../../../../arm-none-eabi/lib/thumb/v7e-m+fp/hard\libcr_c.a(_do_fflush.o)
 .data          0x00000000        0x0 c:/nxp/mcuxpressoide_11.6.0_8187/ide/plugins/com.nxp.mcuxpresso.tools.win32_11.6.0.202112161359/tools/bin/../lib/gcc/arm-none-eabi/10.3.1/../../../../arm-none-eabi/lib/thumb/v7e-m+fp/hard\libcr_c.a(_do_fflush.o)
 .bss           0x00000000        0x0 c:/nxp/mcuxpressoide_11.6.0_8187/ide/plugins/com.nxp.mcuxpresso.tools.win32_11.6.0.202112161359/tools/bin/../lib/gcc/arm-none-eabi/10.3.1/../../../../arm-none-eabi/lib/thumb/v7e-m+fp/hard\libcr_c.a(_do_fflush.o)
 .text          0x00000000        0x0 c:/nxp/mcuxpressoide_11.6.0_8187/ide/plugins/com.nxp.mcuxpresso.tools.win32_11.6.0.202112161359/tools/bin/../lib/gcc/arm-none-eabi/10.3.1/thumb/v7e-m+fp/hard\libcr_eabihelpers.a(division_64.o)
 .data          0x00000000        0x0 c:/nxp/mcuxpressoide_11.6.0_8187/ide/plugins/com.nxp.mcuxpresso.tools.win32_11.6.0.202112161359/tools/bin/../lib/gcc/arm-none-eabi/10.3.1/thumb/v7e-m+fp/hard\libcr_eabihelpers.a(division_64.o)
 .bss           0x00000000        0x0 c:/nxp/mcuxpressoide_11.6.0_8187/ide/plugins/com.nxp.mcuxpresso.tools.win32_11.6.0.202112161359/tools/bin/../lib/gcc/arm-none-eabi/10.3.1/thumb/v7e-m+fp/hard\libcr_eabihelpers.a(division_64.o)
 .text.__aeabi_division_ldivmod
                0x00000000       0x26 c:/nxp/mcuxpressoide_11.6.0_8187/ide/plugins/com.nxp.mcuxpresso.tools.win32_11.6.0.202112161359/tools/bin/../lib/gcc/arm-none-eabi/10.3.1/thumb/v7e-m+fp/hard\libcr_eabihelpers.a(division_64.o)
 .text          0x00000000        0x0 c:/nxp/mcuxpressoide_11.6.0_8187/ide/plugins/com.nxp.mcuxpresso.tools.win32_11.6.0.202112161359/tools/bin/../lib/gcc/arm-none-eabi/10.3.1/thumb/v7e-m+fp/hard\libcr_eabihelpers.a(division_idiv0.o)
 .data          0x00000000        0x0 c:/nxp/mcuxpressoide_11.6.0_8187/ide/plugins/com.nxp.mcuxpresso.tools.win32_11.6.0.202112161359/tools/bin/../lib/gcc/arm-none-eabi/10.3.1/thumb/v7e-m+fp/hard\libcr_eabihelpers.a(division_idiv0.o)
 .bss           0x00000000        0x0 c:/nxp/mcuxpressoide_11.6.0_8187/ide/plugins/com.nxp.mcuxpresso.tools.win32_11.6.0.202112161359/tools/bin/../lib/gcc/arm-none-eabi/10.3.1/thumb/v7e-m+fp/hard\libcr_eabihelpers.a(division_idiv0.o)
 .text          0x00000000        0x0 c:/nxp/mcuxpressoide_11.6.0_8187/ide/plugins/com.nxp.mcuxpresso.tools.win32_11.6.0.202112161359/tools/bin/../lib/gcc/arm-none-eabi/10.3.1/thumb/v7e-m+fp/hard\libcr_eabihelpers.a(double.o)
 .data          0x00000000        0x0 c:/nxp/mcuxpressoide_11.6.0_8187/ide/plugins/com.nxp.mcuxpresso.tools.win32_11.6.0.202112161359/tools/bin/../lib/gcc/arm-none-eabi/10.3.1/thumb/v7e-m+fp/hard\libcr_eabihelpers.a(double.o)
 .bss           0x00000000        0x0 c:/nxp/mcuxpressoide_11.6.0_8187/ide/plugins/com.nxp.mcuxpresso.tools.win32_11.6.0.202112161359/tools/bin/../lib/gcc/arm-none-eabi/10.3.1/thumb/v7e-m+fp/hard\libcr_eabihelpers.a(double.o)
 .text.__aeabi_dmul
                0x00000000       0xfc c:/nxp/mcuxpressoide_11.6.0_8187/ide/plugins/com.nxp.mcuxpresso.tools.win32_11.6.0.202112161359/tools/bin/../lib/gcc/arm-none-eabi/10.3.1/thumb/v7e-m+fp/hard\libcr_eabihelpers.a(double.o)
 .text.__aeabi_ddiv
                0x00000000      0x138 c:/nxp/mcuxpressoide_11.6.0_8187/ide/plugins/com.nxp.mcuxpresso.tools.win32_11.6.0.202112161359/tools/bin/../lib/gcc/arm-none-eabi/10.3.1/thumb/v7e-m+fp/hard\libcr_eabihelpers.a(double.o)
 .text.__aeabi_dsub
                0x00000000      0x1ac c:/nxp/mcuxpressoide_11.6.0_8187/ide/plugins/com.nxp.mcuxpresso.tools.win32_11.6.0.202112161359/tools/bin/../lib/gcc/arm-none-eabi/10.3.1/thumb/v7e-m+fp/hard\libcr_eabihelpers.a(double.o)
 .text.__aeabi_dadd
                0x00000000      0x114 c:/nxp/mcuxpressoide_11.6.0_8187/ide/plugins/com.nxp.mcuxpresso.tools.win32_11.6.0.202112161359/tools/bin/../lib/gcc/arm-none-eabi/10.3.1/thumb/v7e-m+fp/hard\libcr_eabihelpers.a(double.o)
 .text.__aeabi_drsub
                0x00000000       0x18 c:/nxp/mcuxpressoide_11.6.0_8187/ide/plugins/com.nxp.mcuxpresso.tools.win32_11.6.0.202112161359/tools/bin/../lib/gcc/arm-none-eabi/10.3.1/thumb/v7e-m+fp/hard\libcr_eabihelpers.a(double.o)
 .text.__aeabi_dneg
                0x00000000        0xa c:/nxp/mcuxpressoide_11.6.0_8187/ide/plugins/com.nxp.mcuxpresso.tools.win32_11.6.0.202112161359/tools/bin/../lib/gcc/arm-none-eabi/10.3.1/thumb/v7e-m+fp/hard\libcr_eabihelpers.a(double.o)
 .text.__aeabi_d2f
                0x00000000       0x58 c:/nxp/mcuxpressoide_11.6.0_8187/ide/plugins/com.nxp.mcuxpresso.tools.win32_11.6.0.202112161359/tools/bin/../lib/gcc/arm-none-eabi/10.3.1/thumb/v7e-m+fp/hard\libcr_eabihelpers.a(double.o)
 .text.__aeabi_d2iz
                0x00000000       0x40 c:/nxp/mcuxpressoide_11.6.0_8187/ide/plugins/com.nxp.mcuxpresso.tools.win32_11.6.0.202112161359/tools/bin/../lib/gcc/arm-none-eabi/10.3.1/thumb/v7e-m+fp/hard\libcr_eabihelpers.a(double.o)
 .text.__aeabi_d2uiz
                0x00000000       0x30 c:/nxp/mcuxpressoide_11.6.0_8187/ide/plugins/com.nxp.mcuxpresso.tools.win32_11.6.0.202112161359/tools/bin/../lib/gcc/arm-none-eabi/10.3.1/thumb/v7e-m+fp/hard\libcr_eabihelpers.a(double.o)
 .text.__aeabi_d2lz
                0x00000000       0x74 c:/nxp/mcuxpressoide_11.6.0_8187/ide/plugins/com.nxp.mcuxpresso.tools.win32_11.6.0.202112161359/tools/bin/../lib/gcc/arm-none-eabi/10.3.1/thumb/v7e-m+fp/hard\libcr_eabihelpers.a(double.o)
 .text.__aeabi_d2ulz
                0x00000000       0x58 c:/nxp/mcuxpressoide_11.6.0_8187/ide/plugins/com.nxp.mcuxpresso.tools.win32_11.6.0.202112161359/tools/bin/../lib/gcc/arm-none-eabi/10.3.1/thumb/v7e-m+fp/hard\libcr_eabihelpers.a(double.o)
 .text.__bhs_ui2d
                0x00000000       0x46 c:/nxp/mcuxpressoide_11.6.0_8187/ide/plugins/com.nxp.mcuxpresso.tools.win32_11.6.0.202112161359/tools/bin/../lib/gcc/arm-none-eabi/10.3.1/thumb/v7e-m+fp/hard\libcr_eabihelpers.a(double.o)
 .text.__bhs_ul2d
                0x00000000       0x8a c:/nxp/mcuxpressoide_11.6.0_8187/ide/plugins/com.nxp.mcuxpresso.tools.win32_11.6.0.202112161359/tools/bin/../lib/gcc/arm-none-eabi/10.3.1/thumb/v7e-m+fp/hard\libcr_eabihelpers.a(double.o)
 .text.__aeabi_i2d
                0x00000000       0x12 c:/nxp/mcuxpressoide_11.6.0_8187/ide/plugins/com.nxp.mcuxpresso.tools.win32_11.6.0.202112161359/tools/bin/../lib/gcc/arm-none-eabi/10.3.1/thumb/v7e-m+fp/hard\libcr_eabihelpers.a(double.o)
 .text.__aeabi_ui2d
                0x00000000        0x8 c:/nxp/mcuxpressoide_11.6.0_8187/ide/plugins/com.nxp.mcuxpresso.tools.win32_11.6.0.202112161359/tools/bin/../lib/gcc/arm-none-eabi/10.3.1/thumb/v7e-m+fp/hard\libcr_eabihelpers.a(double.o)
 .text.__aeabi_l2d
                0x00000000       0x1c c:/nxp/mcuxpressoide_11.6.0_8187/ide/plugins/com.nxp.mcuxpresso.tools.win32_11.6.0.202112161359/tools/bin/../lib/gcc/arm-none-eabi/10.3.1/thumb/v7e-m+fp/hard\libcr_eabihelpers.a(double.o)
 .text.__aeabi_ul2d
                0x00000000        0x8 c:/nxp/mcuxpressoide_11.6.0_8187/ide/plugins/com.nxp.mcuxpresso.tools.win32_11.6.0.202112161359/tools/bin/../lib/gcc/arm-none-eabi/10.3.1/thumb/v7e-m+fp/hard\libcr_eabihelpers.a(double.o)
 .text.__aeabi_dcmpeq
                0x00000000       0x30 c:/nxp/mcuxpressoide_11.6.0_8187/ide/plugins/com.nxp.mcuxpresso.tools.win32_11.6.0.202112161359/tools/bin/../lib/gcc/arm-none-eabi/10.3.1/thumb/v7e-m+fp/hard\libcr_eabihelpers.a(double.o)
 .text.__aeabi_dcmplt
                0x00000000       0x56 c:/nxp/mcuxpressoide_11.6.0_8187/ide/plugins/com.nxp.mcuxpresso.tools.win32_11.6.0.202112161359/tools/bin/../lib/gcc/arm-none-eabi/10.3.1/thumb/v7e-m+fp/hard\libcr_eabihelpers.a(double.o)
 .text.__aeabi_dcmpgt
                0x00000000       0x56 c:/nxp/mcuxpressoide_11.6.0_8187/ide/plugins/com.nxp.mcuxpresso.tools.win32_11.6.0.202112161359/tools/bin/../lib/gcc/arm-none-eabi/10.3.1/thumb/v7e-m+fp/hard\libcr_eabihelpers.a(double.o)
 .text.__aeabi_dcmple
                0x00000000       0x56 c:/nxp/mcuxpressoide_11.6.0_8187/ide/plugins/com.nxp.mcuxpresso.tools.win32_11.6.0.202112161359/tools/bin/../lib/gcc/arm-none-eabi/10.3.1/thumb/v7e-m+fp/hard\libcr_eabihelpers.a(double.o)
 .text.__aeabi_dcmpge
                0x00000000       0x56 c:/nxp/mcuxpressoide_11.6.0_8187/ide/plugins/com.nxp.mcuxpresso.tools.win32_11.6.0.202112161359/tools/bin/../lib/gcc/arm-none-eabi/10.3.1/thumb/v7e-m+fp/hard\libcr_eabihelpers.a(double.o)
 .text.__aeabi_dcmpun
                0x00000000       0x1a c:/nxp/mcuxpressoide_11.6.0_8187/ide/plugins/com.nxp.mcuxpresso.tools.win32_11.6.0.202112161359/tools/bin/../lib/gcc/arm-none-eabi/10.3.1/thumb/v7e-m+fp/hard\libcr_eabihelpers.a(double.o)
 .text.__aeabi_cdcmple
                0x00000000       0x2c c:/nxp/mcuxpressoide_11.6.0_8187/ide/plugins/com.nxp.mcuxpresso.tools.win32_11.6.0.202112161359/tools/bin/../lib/gcc/arm-none-eabi/10.3.1/thumb/v7e-m+fp/hard\libcr_eabihelpers.a(double.o)
 .text.__aeabi_cdrcmple
                0x00000000       0x14 c:/nxp/mcuxpressoide_11.6.0_8187/ide/plugins/com.nxp.mcuxpresso.tools.win32_11.6.0.202112161359/tools/bin/../lib/gcc/arm-none-eabi/10.3.1/thumb/v7e-m+fp/hard\libcr_eabihelpers.a(double.o)
 .comment       0x00000000       0x4a c:/nxp/mcuxpressoide_11.6.0_8187/ide/plugins/com.nxp.mcuxpresso.tools.win32_11.6.0.202112161359/tools/bin/../lib/gcc/arm-none-eabi/10.3.1/thumb/v7e-m+fp/hard\libcr_eabihelpers.a(double.o)
 .ARM.attributes
                0x00000000       0x34 c:/nxp/mcuxpressoide_11.6.0_8187/ide/plugins/com.nxp.mcuxpresso.tools.win32_11.6.0.202112161359/tools/bin/../lib/gcc/arm-none-eabi/10.3.1/thumb/v7e-m+fp/hard\libcr_eabihelpers.a(double.o)
 .text          0x00000000        0x0 c:/nxp/mcuxpressoide_11.6.0_8187/ide/plugins/com.nxp.mcuxpresso.tools.win32_11.6.0.202112161359/tools/bin/../lib/gcc/arm-none-eabi/10.3.1/thumb/v7e-m+fp/hard\libcr_eabihelpers.a(memcpy.o)
 .data          0x00000000        0x0 c:/nxp/mcuxpressoide_11.6.0_8187/ide/plugins/com.nxp.mcuxpresso.tools.win32_11.6.0.202112161359/tools/bin/../lib/gcc/arm-none-eabi/10.3.1/thumb/v7e-m+fp/hard\libcr_eabihelpers.a(memcpy.o)
 .bss           0x00000000        0x0 c:/nxp/mcuxpressoide_11.6.0_8187/ide/plugins/com.nxp.mcuxpresso.tools.win32_11.6.0.202112161359/tools/bin/../lib/gcc/arm-none-eabi/10.3.1/thumb/v7e-m+fp/hard\libcr_eabihelpers.a(memcpy.o)
 .text.__aeabi_memmove
                0x00000000       0x1c c:/nxp/mcuxpressoide_11.6.0_8187/ide/plugins/com.nxp.mcuxpresso.tools.win32_11.6.0.202112161359/tools/bin/../lib/gcc/arm-none-eabi/10.3.1/thumb/v7e-m+fp/hard\libcr_eabihelpers.a(memcpy.o)
 .text.__aeabi_memclr
                0x00000000        0x8 c:/nxp/mcuxpressoide_11.6.0_8187/ide/plugins/com.nxp.mcuxpresso.tools.win32_11.6.0.202112161359/tools/bin/../lib/gcc/arm-none-eabi/10.3.1/thumb/v7e-m+fp/hard\libcr_eabihelpers.a(memcpy.o)
 .text.__aeabi_memset
                0x00000000        0xa c:/nxp/mcuxpressoide_11.6.0_8187/ide/plugins/com.nxp.mcuxpresso.tools.win32_11.6.0.202112161359/tools/bin/../lib/gcc/arm-none-eabi/10.3.1/thumb/v7e-m+fp/hard\libcr_eabihelpers.a(memcpy.o)
 .text          0x00000000        0x0 c:/nxp/mcuxpressoide_11.6.0_8187/ide/plugins/com.nxp.mcuxpresso.tools.win32_11.6.0.202112161359/tools/bin/../lib/gcc/arm-none-eabi/10.3.1/../../../../arm-none-eabi/lib/thumb/v7e-m+fp/hard\libcr_nohost_nf.a(__ciob.o)
 .data          0x00000000        0x0 c:/nxp/mcuxpressoide_11.6.0_8187/ide/plugins/com.nxp.mcuxpresso.tools.win32_11.6.0.202112161359/tools/bin/../lib/gcc/arm-none-eabi/10.3.1/../../../../arm-none-eabi/lib/thumb/v7e-m+fp/hard\libcr_nohost_nf.a(__ciob.o)
 .bss           0x00000000        0x0 c:/nxp/mcuxpressoide_11.6.0_8187/ide/plugins/com.nxp.mcuxpresso.tools.win32_11.6.0.202112161359/tools/bin/../lib/gcc/arm-none-eabi/10.3.1/../../../../arm-none-eabi/lib/thumb/v7e-m+fp/hard\libcr_nohost_nf.a(__ciob.o)
 .text          0x00000000        0x0 c:/nxp/mcuxpressoide_11.6.0_8187/ide/plugins/com.nxp.mcuxpresso.tools.win32_11.6.0.202112161359/tools/bin/../lib/gcc/arm-none-eabi/10.3.1/../../../../arm-none-eabi/lib/thumb/v7e-m+fp/hard\libcr_nohost_nf.a(__sys_appexit.o)
 .data          0x00000000        0x0 c:/nxp/mcuxpressoide_11.6.0_8187/ide/plugins/com.nxp.mcuxpresso.tools.win32_11.6.0.202112161359/tools/bin/../lib/gcc/arm-none-eabi/10.3.1/../../../../arm-none-eabi/lib/thumb/v7e-m+fp/hard\libcr_nohost_nf.a(__sys_appexit.o)
 .bss           0x00000000        0x0 c:/nxp/mcuxpressoide_11.6.0_8187/ide/plugins/com.nxp.mcuxpresso.tools.win32_11.6.0.202112161359/tools/bin/../lib/gcc/arm-none-eabi/10.3.1/../../../../arm-none-eabi/lib/thumb/v7e-m+fp/hard\libcr_nohost_nf.a(__sys_appexit.o)
 .text.__sys_appexit
                0x00000000        0x2 c:/nxp/mcuxpressoide_11.6.0_8187/ide/plugins/com.nxp.mcuxpresso.tools.win32_11.6.0.202112161359/tools/bin/../lib/gcc/arm-none-eabi/10.3.1/../../../../arm-none-eabi/lib/thumb/v7e-m+fp/hard\libcr_nohost_nf.a(__sys_appexit.o)
 .comment       0x00000000       0x4a c:/nxp/mcuxpressoide_11.6.0_8187/ide/plugins/com.nxp.mcuxpresso.tools.win32_11.6.0.202112161359/tools/bin/../lib/gcc/arm-none-eabi/10.3.1/../../../../arm-none-eabi/lib/thumb/v7e-m+fp/hard\libcr_nohost_nf.a(__sys_appexit.o)
 .ARM.attributes
                0x00000000       0x34 c:/nxp/mcuxpressoide_11.6.0_8187/ide/plugins/com.nxp.mcuxpresso.tools.win32_11.6.0.202112161359/tools/bin/../lib/gcc/arm-none-eabi/10.3.1/../../../../arm-none-eabi/lib/thumb/v7e-m+fp/hard\libcr_nohost_nf.a(__sys_appexit.o)
 .text          0x00000000        0x0 c:/nxp/mcuxpressoide_11.6.0_8187/ide/plugins/com.nxp.mcuxpresso.tools.win32_11.6.0.202112161359/tools/bin/../lib/gcc/arm-none-eabi/10.3.1/../../../../arm-none-eabi/lib/thumb/v7e-m+fp/hard\libcr_nohost_nf.a(__sys_close.o)
 .data          0x00000000        0x0 c:/nxp/mcuxpressoide_11.6.0_8187/ide/plugins/com.nxp.mcuxpresso.tools.win32_11.6.0.202112161359/tools/bin/../lib/gcc/arm-none-eabi/10.3.1/../../../../arm-none-eabi/lib/thumb/v7e-m+fp/hard\libcr_nohost_nf.a(__sys_close.o)
 .bss           0x00000000        0x0 c:/nxp/mcuxpressoide_11.6.0_8187/ide/plugins/com.nxp.mcuxpresso.tools.win32_11.6.0.202112161359/tools/bin/../lib/gcc/arm-none-eabi/10.3.1/../../../../arm-none-eabi/lib/thumb/v7e-m+fp/hard\libcr_nohost_nf.a(__sys_close.o)
 .text          0x00000000        0x0 c:/nxp/mcuxpressoide_11.6.0_8187/ide/plugins/com.nxp.mcuxpresso.tools.win32_11.6.0.202112161359/tools/bin/../lib/gcc/arm-none-eabi/10.3.1/../../../../arm-none-eabi/lib/thumb/v7e-m+fp/hard\libcr_nohost_nf.a(__sys_flen.o)
 .data          0x00000000        0x0 c:/nxp/mcuxpressoide_11.6.0_8187/ide/plugins/com.nxp.mcuxpresso.tools.win32_11.6.0.202112161359/tools/bin/../lib/gcc/arm-none-eabi/10.3.1/../../../../arm-none-eabi/lib/thumb/v7e-m+fp/hard\libcr_nohost_nf.a(__sys_flen.o)
 .bss           0x00000000        0x0 c:/nxp/mcuxpressoide_11.6.0_8187/ide/plugins/com.nxp.mcuxpresso.tools.win32_11.6.0.202112161359/tools/bin/../lib/gcc/arm-none-eabi/10.3.1/../../../../arm-none-eabi/lib/thumb/v7e-m+fp/hard\libcr_nohost_nf.a(__sys_flen.o)
 .text          0x00000000        0x0 c:/nxp/mcuxpressoide_11.6.0_8187/ide/plugins/com.nxp.mcuxpresso.tools.win32_11.6.0.202112161359/tools/bin/../lib/gcc/arm-none-eabi/10.3.1/../../../../arm-none-eabi/lib/thumb/v7e-m+fp/hard\libcr_nohost_nf.a(__sys_istty.o)
 .data          0x00000000        0x0 c:/nxp/mcuxpressoide_11.6.0_8187/ide/plugins/com.nxp.mcuxpresso.tools.win32_11.6.0.202112161359/tools/bin/../lib/gcc/arm-none-eabi/10.3.1/../../../../arm-none-eabi/lib/thumb/v7e-m+fp/hard\libcr_nohost_nf.a(__sys_istty.o)
 .bss           0x00000000        0x0 c:/nxp/mcuxpressoide_11.6.0_8187/ide/plugins/com.nxp.mcuxpresso.tools.win32_11.6.0.202112161359/tools/bin/../lib/gcc/arm-none-eabi/10.3.1/../../../../arm-none-eabi/lib/thumb/v7e-m+fp/hard\libcr_nohost_nf.a(__sys_istty.o)
 .text          0x00000000        0x0 c:/nxp/mcuxpressoide_11.6.0_8187/ide/plugins/com.nxp.mcuxpresso.tools.win32_11.6.0.202112161359/tools/bin/../lib/gcc/arm-none-eabi/10.3.1/../../../../arm-none-eabi/lib/thumb/v7e-m+fp/hard\libcr_nohost_nf.a(__sys_read.o)
 .data          0x00000000        0x0 c:/nxp/mcuxpressoide_11.6.0_8187/ide/plugins/com.nxp.mcuxpresso.tools.win32_11.6.0.202112161359/tools/bin/../lib/gcc/arm-none-eabi/10.3.1/../../../../arm-none-eabi/lib/thumb/v7e-m+fp/hard\libcr_nohost_nf.a(__sys_read.o)
 .bss           0x00000000        0x0 c:/nxp/mcuxpressoide_11.6.0_8187/ide/plugins/com.nxp.mcuxpresso.tools.win32_11.6.0.202112161359/tools/bin/../lib/gcc/arm-none-eabi/10.3.1/../../../../arm-none-eabi/lib/thumb/v7e-m+fp/hard\libcr_nohost_nf.a(__sys_read.o)
 .text.__sys_read
                0x00000000        0x4 c:/nxp/mcuxpressoide_11.6.0_8187/ide/plugins/com.nxp.mcuxpresso.tools.win32_11.6.0.202112161359/tools/bin/../lib/gcc/arm-none-eabi/10.3.1/../../../../arm-none-eabi/lib/thumb/v7e-m+fp/hard\libcr_nohost_nf.a(__sys_read.o)
 .comment       0x00000000       0x4a c:/nxp/mcuxpressoide_11.6.0_8187/ide/plugins/com.nxp.mcuxpresso.tools.win32_11.6.0.202112161359/tools/bin/../lib/gcc/arm-none-eabi/10.3.1/../../../../arm-none-eabi/lib/thumb/v7e-m+fp/hard\libcr_nohost_nf.a(__sys_read.o)
 .ARM.attributes
                0x00000000       0x34 c:/nxp/mcuxpressoide_11.6.0_8187/ide/plugins/com.nxp.mcuxpresso.tools.win32_11.6.0.202112161359/tools/bin/../lib/gcc/arm-none-eabi/10.3.1/../../../../arm-none-eabi/lib/thumb/v7e-m+fp/hard\libcr_nohost_nf.a(__sys_read.o)
 .text          0x00000000        0x0 c:/nxp/mcuxpressoide_11.6.0_8187/ide/plugins/com.nxp.mcuxpresso.tools.win32_11.6.0.202112161359/tools/bin/../lib/gcc/arm-none-eabi/10.3.1/../../../../arm-none-eabi/lib/thumb/v7e-m+fp/hard\libcr_nohost_nf.a(__sys_readc.o)
 .data          0x00000000        0x0 c:/nxp/mcuxpressoide_11.6.0_8187/ide/plugins/com.nxp.mcuxpresso.tools.win32_11.6.0.202112161359/tools/bin/../lib/gcc/arm-none-eabi/10.3.1/../../../../arm-none-eabi/lib/thumb/v7e-m+fp/hard\libcr_nohost_nf.a(__sys_readc.o)
 .bss           0x00000000        0x0 c:/nxp/mcuxpressoide_11.6.0_8187/ide/plugins/com.nxp.mcuxpresso.tools.win32_11.6.0.202112161359/tools/bin/../lib/gcc/arm-none-eabi/10.3.1/../../../../arm-none-eabi/lib/thumb/v7e-m+fp/hard\libcr_nohost_nf.a(__sys_readc.o)
 .text.__sys_readc
                0x00000000        0x6 c:/nxp/mcuxpressoide_11.6.0_8187/ide/plugins/com.nxp.mcuxpresso.tools.win32_11.6.0.202112161359/tools/bin/../lib/gcc/arm-none-eabi/10.3.1/../../../../arm-none-eabi/lib/thumb/v7e-m+fp/hard\libcr_nohost_nf.a(__sys_readc.o)
 .comment       0x00000000       0x4a c:/nxp/mcuxpressoide_11.6.0_8187/ide/plugins/com.nxp.mcuxpresso.tools.win32_11.6.0.202112161359/tools/bin/../lib/gcc/arm-none-eabi/10.3.1/../../../../arm-none-eabi/lib/thumb/v7e-m+fp/hard\libcr_nohost_nf.a(__sys_readc.o)
 .ARM.attributes
                0x00000000       0x34 c:/nxp/mcuxpressoide_11.6.0_8187/ide/plugins/com.nxp.mcuxpresso.tools.win32_11.6.0.202112161359/tools/bin/../lib/gcc/arm-none-eabi/10.3.1/../../../../arm-none-eabi/lib/thumb/v7e-m+fp/hard\libcr_nohost_nf.a(__sys_readc.o)
 .text          0x00000000        0x0 c:/nxp/mcuxpressoide_11.6.0_8187/ide/plugins/com.nxp.mcuxpresso.tools.win32_11.6.0.202112161359/tools/bin/../lib/gcc/arm-none-eabi/10.3.1/../../../../arm-none-eabi/lib/thumb/v7e-m+fp/hard\libcr_nohost_nf.a(__sys_remove.o)
 .data          0x00000000        0x0 c:/nxp/mcuxpressoide_11.6.0_8187/ide/plugins/com.nxp.mcuxpresso.tools.win32_11.6.0.202112161359/tools/bin/../lib/gcc/arm-none-eabi/10.3.1/../../../../arm-none-eabi/lib/thumb/v7e-m+fp/hard\libcr_nohost_nf.a(__sys_remove.o)
 .bss           0x00000000        0x0 c:/nxp/mcuxpressoide_11.6.0_8187/ide/plugins/com.nxp.mcuxpresso.tools.win32_11.6.0.202112161359/tools/bin/../lib/gcc/arm-none-eabi/10.3.1/../../../../arm-none-eabi/lib/thumb/v7e-m+fp/hard\libcr_nohost_nf.a(__sys_remove.o)
 .text          0x00000000        0x0 c:/nxp/mcuxpressoide_11.6.0_8187/ide/plugins/com.nxp.mcuxpresso.tools.win32_11.6.0.202112161359/tools/bin/../lib/gcc/arm-none-eabi/10.3.1/../../../../arm-none-eabi/lib/thumb/v7e-m+fp/hard\libcr_nohost_nf.a(__sys_rename.o)
 .data          0x00000000        0x0 c:/nxp/mcuxpressoide_11.6.0_8187/ide/plugins/com.nxp.mcuxpresso.tools.win32_11.6.0.202112161359/tools/bin/../lib/gcc/arm-none-eabi/10.3.1/../../../../arm-none-eabi/lib/thumb/v7e-m+fp/hard\libcr_nohost_nf.a(__sys_rename.o)
 .bss           0x00000000        0x0 c:/nxp/mcuxpressoide_11.6.0_8187/ide/plugins/com.nxp.mcuxpresso.tools.win32_11.6.0.202112161359/tools/bin/../lib/gcc/arm-none-eabi/10.3.1/../../../../arm-none-eabi/lib/thumb/v7e-m+fp/hard\libcr_nohost_nf.a(__sys_rename.o)
 .text.__sys_rename
                0x00000000        0x6 c:/nxp/mcuxpressoide_11.6.0_8187/ide/plugins/com.nxp.mcuxpresso.tools.win32_11.6.0.202112161359/tools/bin/../lib/gcc/arm-none-eabi/10.3.1/../../../../arm-none-eabi/lib/thumb/v7e-m+fp/hard\libcr_nohost_nf.a(__sys_rename.o)
 .comment       0x00000000       0x4a c:/nxp/mcuxpressoide_11.6.0_8187/ide/plugins/com.nxp.mcuxpresso.tools.win32_11.6.0.202112161359/tools/bin/../lib/gcc/arm-none-eabi/10.3.1/../../../../arm-none-eabi/lib/thumb/v7e-m+fp/hard\libcr_nohost_nf.a(__sys_rename.o)
 .ARM.attributes
                0x00000000       0x34 c:/nxp/mcuxpressoide_11.6.0_8187/ide/plugins/com.nxp.mcuxpresso.tools.win32_11.6.0.202112161359/tools/bin/../lib/gcc/arm-none-eabi/10.3.1/../../../../arm-none-eabi/lib/thumb/v7e-m+fp/hard\libcr_nohost_nf.a(__sys_rename.o)
 .text          0x00000000        0x0 c:/nxp/mcuxpressoide_11.6.0_8187/ide/plugins/com.nxp.mcuxpresso.tools.win32_11.6.0.202112161359/tools/bin/../lib/gcc/arm-none-eabi/10.3.1/../../../../arm-none-eabi/lib/thumb/v7e-m+fp/hard\libcr_nohost_nf.a(__sys_seek.o)
 .data          0x00000000        0x0 c:/nxp/mcuxpressoide_11.6.0_8187/ide/plugins/com.nxp.mcuxpresso.tools.win32_11.6.0.202112161359/tools/bin/../lib/gcc/arm-none-eabi/10.3.1/../../../../arm-none-eabi/lib/thumb/v7e-m+fp/hard\libcr_nohost_nf.a(__sys_seek.o)
 .bss           0x00000000        0x0 c:/nxp/mcuxpressoide_11.6.0_8187/ide/plugins/com.nxp.mcuxpresso.tools.win32_11.6.0.202112161359/tools/bin/../lib/gcc/arm-none-eabi/10.3.1/../../../../arm-none-eabi/lib/thumb/v7e-m+fp/hard\libcr_nohost_nf.a(__sys_seek.o)
 .text          0x00000000        0x0 c:/nxp/mcuxpressoide_11.6.0_8187/ide/plugins/com.nxp.mcuxpresso.tools.win32_11.6.0.202112161359/tools/bin/../lib/gcc/arm-none-eabi/10.3.1/../../../../arm-none-eabi/lib/thumb/v7e-m+fp/hard\libcr_nohost_nf.a(__sys_tmpnam.o)
 .data          0x00000000        0x0 c:/nxp/mcuxpressoide_11.6.0_8187/ide/plugins/com.nxp.mcuxpresso.tools.win32_11.6.0.202112161359/tools/bin/../lib/gcc/arm-none-eabi/10.3.1/../../../../arm-none-eabi/lib/thumb/v7e-m+fp/hard\libcr_nohost_nf.a(__sys_tmpnam.o)
 .bss           0x00000000        0x0 c:/nxp/mcuxpressoide_11.6.0_8187/ide/plugins/com.nxp.mcuxpresso.tools.win32_11.6.0.202112161359/tools/bin/../lib/gcc/arm-none-eabi/10.3.1/../../../../arm-none-eabi/lib/thumb/v7e-m+fp/hard\libcr_nohost_nf.a(__sys_tmpnam.o)
 .text          0x00000000        0x0 c:/nxp/mcuxpressoide_11.6.0_8187/ide/plugins/com.nxp.mcuxpresso.tools.win32_11.6.0.202112161359/tools/bin/../lib/gcc/arm-none-eabi/10.3.1/../../../../arm-none-eabi/lib/thumb/v7e-m+fp/hard\libcr_nohost_nf.a(__sys_write.o)
 .data          0x00000000        0x0 c:/nxp/mcuxpressoide_11.6.0_8187/ide/plugins/com.nxp.mcuxpresso.tools.win32_11.6.0.202112161359/tools/bin/../lib/gcc/arm-none-eabi/10.3.1/../../../../arm-none-eabi/lib/thumb/v7e-m+fp/hard\libcr_nohost_nf.a(__sys_write.o)
 .bss           0x00000000        0x0 c:/nxp/mcuxpressoide_11.6.0_8187/ide/plugins/com.nxp.mcuxpresso.tools.win32_11.6.0.202112161359/tools/bin/../lib/gcc/arm-none-eabi/10.3.1/../../../../arm-none-eabi/lib/thumb/v7e-m+fp/hard\libcr_nohost_nf.a(__sys_write.o)

Memory Configuration

Name             Origin             Length             Attributes
BOARD_FLASH      0x60000000         0x04000000         xr
SRAM_DTC         0x20000000         0x00020000         xrw
SRAM_ITC         0x00000000         0x00020000         xrw
SRAM_OC          0x20200000         0x00040000         xrw
BOARD_SDRAM      0x80000000         0x01e00000         xrw
NCACHE_REGION    0x81e00000         0x00200000         xrw
*default*        0x00000000         0xffffffff

Linker script and memory map

LOAD ./xip/evkbimxrt1050_flexspi_nor_config.o
LOAD ./xip/fsl_flexspi_nor_boot.o
LOAD ./utilities/fsl_assert.o
LOAD ./utilities/fsl_debug_console.o
LOAD ./utilities/fsl_str.o
LOAD ./startup/startup_mimxrt1052.o
LOAD ./source/MIMXRT1052_Project.o
LOAD ./source/semihost_hardfault.o
LOAD ./drivers/fsl_clock.o
LOAD ./drivers/fsl_common.o
LOAD ./drivers/fsl_common_arm.o
LOAD ./drivers/fsl_gpio.o
LOAD ./drivers/fsl_lpuart.o
LOAD ./device/system_MIMXRT1052.o
LOAD ./component/uart/fsl_adapter_lpuart.o
LOAD ./component/serial_manager/fsl_component_serial_manager.o
LOAD ./component/serial_manager/fsl_component_serial_port_uart.o
LOAD ./component/lists/fsl_component_generic_list.o
LOAD ./board/board.o
LOAD ./board/clock_config.o
LOAD ./board/dcd.o
LOAD ./board/peripherals.o
LOAD ./board/pin_mux.o
START GROUP
LOAD c:/nxp/mcuxpressoide_11.6.0_8187/ide/plugins/com.nxp.mcuxpresso.tools.win32_11.6.0.202112161359/tools/bin/../lib/gcc/arm-none-eabi/10.3.1/../../../../arm-none-eabi/lib/thumb/v7e-m+fp/hard\libcr_nohost_nf.a
LOAD c:/nxp/mcuxpressoide_11.6.0_8187/ide/plugins/com.nxp.mcuxpresso.tools.win32_11.6.0.202112161359/tools/bin/../lib/gcc/arm-none-eabi/10.3.1/../../../../arm-none-eabi/lib/thumb/v7e-m+fp/hard\libcr_c.a
LOAD c:/nxp/mcuxpressoide_11.6.0_8187/ide/plugins/com.nxp.mcuxpresso.tools.win32_11.6.0.202112161359/tools/bin/../lib/gcc/arm-none-eabi/10.3.1/thumb/v7e-m+fp/hard\libcr_eabihelpers.a
LOAD c:/nxp/mcuxpressoide_11.6.0_8187/ide/plugins/com.nxp.mcuxpresso.tools.win32_11.6.0.202112161359/tools/bin/../lib/gcc/arm-none-eabi/10.3.1/thumb/v7e-m+fp/hard\libgcc.a
END GROUP
                0x60000000                __base_BOARD_FLASH = 0x60000000
                0x60000000                __base_Flash = 0x60000000
                0x64000000                __top_BOARD_FLASH = 0x64000000
                0x64000000                __top_Flash = 0x64000000
                0x20000000                __base_SRAM_DTC = 0x20000000
                0x20000000                __base_RAM = 0x20000000
                0x20020000                __top_SRAM_DTC = 0x20020000
                0x20020000                __top_RAM = 0x20020000
                0x00000000                __base_SRAM_ITC = 0x0
                0x00000000                __base_RAM2 = 0x0
                0x00020000                __top_SRAM_ITC = 0x20000
                0x00020000                __top_RAM2 = 0x20000
                0x20200000                __base_SRAM_OC = 0x20200000
                0x20200000                __base_RAM3 = 0x20200000
                0x20240000                __top_SRAM_OC = 0x20240000
                0x20240000                __top_RAM3 = 0x20240000
                0x80000000                __base_BOARD_SDRAM = 0x80000000
                0x80000000                __base_RAM4 = 0x80000000
                0x81e00000                __top_BOARD_SDRAM = 0x81e00000
                0x81e00000                __top_RAM4 = 0x81e00000
                0x81e00000                __base_NCACHE_REGION = 0x81e00000
                0x81e00000                __base_RAM5 = 0x81e00000
                0x82000000                __top_NCACHE_REGION = 0x82000000
                0x82000000                __top_RAM5 = 0x82000000

.boot_hdr       0x60000000     0x2000
 FILL mask 0xff
                0x60000000                __boot_hdr_start__ = ABSOLUTE (.)
 *(SORT_BY_ALIGNMENT(.boot_hdr.conf))
 .boot_hdr.conf
                0x60000000      0x200 ./xip/evkbimxrt1050_flexspi_nor_config.o
                0x60000000                hyperflash_config
                0x00001000                . = 0x1000
 *fill*         0x60000200      0xe00 ff
 *(SORT_BY_ALIGNMENT(.boot_hdr.ivt))
 .boot_hdr.ivt  0x60001000       0x20 ./xip/fsl_flexspi_nor_boot.o
                0x60001000                image_vector_table
                0x00001020                . = 0x1020
 *(SORT_BY_ALIGNMENT(.boot_hdr.boot_data))
 .boot_hdr.boot_data
                0x60001020       0x10 ./xip/fsl_flexspi_nor_boot.o
                0x60001020                g_boot_data
                0x00001030                . = 0x1030
 *(SORT_BY_ALIGNMENT(.boot_hdr.dcd_data))
                0x60001030                __boot_hdr_end__ = ABSOLUTE (.)
                0x00002000                . = 0x2000
 *fill*         0x60001030      0xfd0 ff

.text           0x60002000     0x4308
 FILL mask 0xff
                0x60002000                __vectors_start__ = ABSOLUTE (.)
 *(SORT_BY_ALIGNMENT(.isr_vector))
 .isr_vector    0x60002000      0x2a0 ./startup/startup_mimxrt1052.o
                0x60002000                g_pfnVectors
                0x60002000                __Vectors
                0x600022a0                . = ALIGN (0x4)
                0x600022a0                __section_table_start = .
                0x600022a0                __data_section_table = .
                0x600022a0        0x4 LONG 0x60006308 LOADADDR (.data)
                0x600022a4        0x4 LONG 0x20000000 ADDR (.data)
                0x600022a8        0x4 LONG 0x4 SIZEOF (.data)
                0x600022ac        0x4 LONG 0x60006308 LOADADDR (.data_RAM2)
                0x600022b0        0x4 LONG 0x0 ADDR (.data_RAM2)
                0x600022b4        0x4 LONG 0x0 SIZEOF (.data_RAM2)
                0x600022b8        0x4 LONG 0x60006308 LOADADDR (.data_RAM3)
                0x600022bc        0x4 LONG 0x20200000 ADDR (.data_RAM3)
                0x600022c0        0x4 LONG 0x0 SIZEOF (.data_RAM3)
                0x600022c4        0x4 LONG 0x60006308 LOADADDR (.data_RAM4)
                0x600022c8        0x4 LONG 0x80000000 ADDR (.data_RAM4)
                0x600022cc        0x4 LONG 0x0 SIZEOF (.data_RAM4)
                0x600022d0        0x4 LONG 0x60006308 LOADADDR (.data_RAM5)
                0x600022d4        0x4 LONG 0x81e00000 ADDR (.data_RAM5)
                0x600022d8        0x4 LONG 0x0 SIZEOF (.data_RAM5)
                0x600022dc                __data_section_table_end = .
                0x600022dc                __bss_section_table = .
                0x600022dc        0x4 LONG 0x20000004 ADDR (.bss)
                0x600022e0        0x4 LONG 0x114 SIZEOF (.bss)
                0x600022e4        0x4 LONG 0x0 ADDR (.bss_RAM2)
                0x600022e8        0x4 LONG 0x0 SIZEOF (.bss_RAM2)
                0x600022ec        0x4 LONG 0x20200000 ADDR (.bss_RAM3)
                0x600022f0        0x4 LONG 0x0 SIZEOF (.bss_RAM3)
                0x600022f4        0x4 LONG 0x80000000 ADDR (.bss_RAM4)
                0x600022f8        0x4 LONG 0x0 SIZEOF (.bss_RAM4)
                0x600022fc        0x4 LONG 0x81e00000 ADDR (.bss_RAM5)
                0x60002300        0x4 LONG 0x0 SIZEOF (.bss_RAM5)
                0x60002304                __bss_section_table_end = .
                0x60002304                __section_table_end = .
 *(SORT_BY_ALIGNMENT(.after_vectors*))
 .after_vectors.reset
                0x60002304       0x54 ./startup/startup_mimxrt1052.o
                0x60002304                ResetISR
 .after_vectors.init_data
                0x60002358       0x1e ./startup/startup_mimxrt1052.o
                0x60002358                data_init
 .after_vectors.init_bss
                0x60002376       0x12 ./startup/startup_mimxrt1052.o
                0x60002376                bss_init
 .after_vectors
                0x60002388       0x14 ./startup/startup_mimxrt1052.o
                0x60002388                NMI_Handler
                0x6000238c                MemManage_Handler
                0x6000238e                BusFault_Handler
                0x60002390                UsageFault_Handler
                0x60002392                SVC_Handler
                0x60002394                DebugMon_Handler
                0x60002396                PendSV_Handler
                0x60002398                SysTick_Handler
                0x6000239a                PIT_DriverIRQHandler
                0x6000239a                PMU_EVENT_DriverIRQHandler
                0x6000239a                PWM4_FAULT_DriverIRQHandler
                0x6000239a                DMA13_DMA29_DriverIRQHandler
                0x6000239a                SAI3_RX_DriverIRQHandler
                0x6000239a                LPSPI4_DriverIRQHandler
                0x6000239a                SEMC_DriverIRQHandler
                0x6000239a                SPDIF_DriverIRQHandler
                0x6000239a                CCM_2_DriverIRQHandler
                0x6000239a                PWM4_3_DriverIRQHandler
                0x6000239a                FLEXRAM_DriverIRQHandler
                0x6000239a                LCDIF_DriverIRQHandler
                0x6000239a                USB_PHY1_DriverIRQHandler
                0x6000239a                GPIO3_Combined_0_15_DriverIRQHandler
                0x6000239a                DMA7_DMA23_DriverIRQHandler
                0x6000239a                BEE_DriverIRQHandler
                0x6000239a                LPI2C3_DriverIRQHandler
                0x6000239a                GPR_IRQ_DriverIRQHandler
                0x6000239a                PWM2_FAULT_DriverIRQHandler
                0x6000239a                PWM3_1_DriverIRQHandler
                0x6000239a                DMA14_DMA30_DriverIRQHandler
                0x6000239a                TMR1_DriverIRQHandler
                0x6000239a                TRNG_DriverIRQHandler
                0x6000239a                PWM3_2_DriverIRQHandler
                0x6000239a                ENET_1588_Timer_DriverIRQHandler
                0x6000239a                FLEXIO2_DriverIRQHandler
                0x6000239a                GPIO2_Combined_16_31_DriverIRQHandler
                0x6000239a                Reserved143_DriverIRQHandler
                0x6000239a                LPSPI2_DriverIRQHandler
                0x6000239a                PWM4_1_DriverIRQHandler
                0x6000239a                PWM3_3_DriverIRQHandler
                0x6000239a                DMA0_DMA16_DriverIRQHandler
                0x6000239a                IntDefaultHandler
                0x6000239a                DMA2_DMA18_DriverIRQHandler
                0x6000239a                SRC_DriverIRQHandler
                0x6000239a                GPIO1_INT4_DriverIRQHandler
                0x6000239a                Reserved144_DriverIRQHandler
                0x6000239a                USDHC1_DriverIRQHandler
                0x6000239a                ENC3_DriverIRQHandler
                0x6000239a                PWM3_FAULT_DriverIRQHandler
                0x6000239a                EWM_DriverIRQHandler
                0x6000239a                TSC_DIG_DriverIRQHandler
                0x6000239a                KPP_DriverIRQHandler
                0x6000239a                FLEXIO1_DriverIRQHandler
                0x6000239a                ENET_DriverIRQHandler
                0x6000239a                Reserved78_DriverIRQHandler
                0x6000239a                TMR4_DriverIRQHandler
                0x6000239a                ENC2_DriverIRQHandler
                0x6000239a                ADC_ETC_IRQ2_DriverIRQHandler
                0x6000239a                GPIO1_Combined_16_31_DriverIRQHandler
                0x6000239a                GPIO1_INT7_DriverIRQHandler
                0x6000239a                SAI1_DriverIRQHandler
                0x6000239a                DCDC_DriverIRQHandler
                0x6000239a                DMA12_DMA28_DriverIRQHandler
                0x6000239a                PWM4_0_DriverIRQHandler
                0x6000239a                ADC_ETC_ERROR_IRQ_DriverIRQHandler
                0x6000239a                ACMP2_DriverIRQHandler
                0x6000239a                GPIO5_Combined_0_15_DriverIRQHandler
                0x6000239a                GPIO1_INT0_DriverIRQHandler
                0x6000239a                GPIO1_INT2_DriverIRQHandler
                0x6000239a                RTWDOG_DriverIRQHandler
                0x6000239a                FLEXSPI_DriverIRQHandler
                0x6000239a                GPT2_DriverIRQHandler
                0x6000239a                USB_PHY2_DriverIRQHandler
                0x6000239a                DMA10_DMA26_DriverIRQHandler
                0x6000239a                PWM2_1_DriverIRQHandler
                0x6000239a                PWM1_1_DriverIRQHandler
                0x6000239a                PXP_DriverIRQHandler
                0x6000239a                ADC1_DriverIRQHandler
                0x6000239a                PWM1_0_DriverIRQHandler
                0x6000239a                SJC_DriverIRQHandler
                0x6000239a                DMA1_DMA17_DriverIRQHandler
                0x6000239a                ENC1_DriverIRQHandler
                0x6000239a                ENC4_DriverIRQHandler
                0x6000239a                CAN2_DriverIRQHandler
                0x6000239a                DCP_DriverIRQHandler
                0x6000239a                CTI0_ERROR_DriverIRQHandler
                0x6000239a                DMA8_DMA24_DriverIRQHandler
                0x6000239a                GPT1_DriverIRQHandler
                0x6000239a                ACMP3_DriverIRQHandler
                0x6000239a                DMA6_DMA22_DriverIRQHandler
                0x6000239a                CSU_DriverIRQHandler
                0x6000239a                GPIO1_INT5_DriverIRQHandler
                0x6000239a                TMR3_DriverIRQHandler
                0x6000239a                TMR2_DriverIRQHandler
                0x6000239a                CTI1_ERROR_DriverIRQHandler
                0x6000239a                GPIO1_Combined_0_15_DriverIRQHandler
                0x6000239a                USDHC2_DriverIRQHandler
                0x6000239a                PWM4_2_DriverIRQHandler
                0x6000239a                Reserved87_DriverIRQHandler
                0x6000239a                SAI2_DriverIRQHandler
                0x6000239a                CORE_DriverIRQHandler
                0x6000239a                WDOG1_DriverIRQHandler
                0x6000239a                DMA11_DMA27_DriverIRQHandler
                0x6000239a                CSI_DriverIRQHandler
                0x6000239a                PWM2_3_DriverIRQHandler
                0x6000239a                XBAR1_IRQ_2_3_DriverIRQHandler
                0x6000239a                SNVS_HP_WRAPPER_TZ_DriverIRQHandler
                0x6000239a                GPIO3_Combined_16_31_DriverIRQHandler
                0x6000239a                PWM1_FAULT_DriverIRQHandler
                0x6000239a                LPI2C1_DriverIRQHandler
                0x6000239a                PWM2_2_DriverIRQHandler
                0x6000239a                DMA4_DMA20_DriverIRQHandler
                0x6000239a                DMA9_DMA25_DriverIRQHandler
                0x6000239a                SNVS_HP_WRAPPER_DriverIRQHandler
                0x6000239a                XBAR1_IRQ_0_1_DriverIRQHandler
                0x6000239a                ADC_ETC_IRQ1_DriverIRQHandler
                0x6000239a                LPSPI1_DriverIRQHandler
                0x6000239a                DMA3_DMA19_DriverIRQHandler
                0x6000239a                GPIO1_INT3_DriverIRQHandler
                0x6000239a                DCP_VMI_DriverIRQHandler
                0x6000239a                LPI2C4_DriverIRQHandler
                0x6000239a                GPC_DriverIRQHandler
                0x6000239a                Reserved123_DriverIRQHandler
                0x6000239a                GPIO2_Combined_0_15_DriverIRQHandler
                0x6000239a                PWM1_2_DriverIRQHandler
                0x6000239a                USB_OTG1_DriverIRQHandler
                0x6000239a                TEMP_LOW_HIGH_DriverIRQHandler
                0x6000239a                SAI3_TX_DriverIRQHandler
                0x6000239a                WDOG2_DriverIRQHandler
                0x6000239a                Reserved68_DriverIRQHandler
                0x6000239a                PWM3_0_DriverIRQHandler
                0x6000239a                GPIO4_Combined_0_15_DriverIRQHandler
                0x6000239a                GPIO4_Combined_16_31_DriverIRQHandler
                0x6000239a                GPIO5_Combined_16_31_DriverIRQHandler
                0x6000239a                DMA5_DMA21_DriverIRQHandler
                0x6000239a                CCM_1_DriverIRQHandler
                0x6000239a                ADC2_DriverIRQHandler
                0x6000239a                Reserved115_DriverIRQHandler
                0x6000239a                TEMP_PANIC_DriverIRQHandler
                0x6000239a                ACMP4_DriverIRQHandler
                0x6000239a                DMA15_DMA31_DriverIRQHandler
                0x6000239a                LPSPI3_DriverIRQHandler
                0x6000239a                PWM1_3_DriverIRQHandler
                0x6000239a                ACMP1_DriverIRQHandler
                0x6000239a                LPI2C2_DriverIRQHandler
                0x6000239a                Reserved86_DriverIRQHandler
                0x6000239a                DMA_ERROR_DriverIRQHandler
                0x6000239a                ADC_ETC_IRQ0_DriverIRQHandler
                0x6000239a                CAN1_DriverIRQHandler
                0x6000239a                GPIO1_INT6_DriverIRQHandler
                0x6000239a                GPIO1_INT1_DriverIRQHandler
                0x6000239a                PWM2_0_DriverIRQHandler
                0x6000239a                SNVS_LP_WRAPPER_DriverIRQHandler
                0x6000239a                USB_OTG2_DriverIRQHandler
 *(SORT_BY_ALIGNMENT(.text*))
 .text.__assertion_failed
                0x6000239c       0x18 ./utilities/fsl_assert.o
                0x6000239c                __assertion_failed
 .text.DbgConsole_SendDataReliable
                0x600023b4       0x54 ./utilities/fsl_debug_console.o
                0x600023b4                DbgConsole_SendDataReliable
 .text.DbgConsole_Init
                0x60002408      0x128 ./utilities/fsl_debug_console.o
                0x60002408                DbgConsole_Init
 .text.DbgConsole_Vprintf
                0x60002530       0x6c ./utilities/fsl_debug_console.o
                0x60002530                DbgConsole_Vprintf
 .text.main     0x6000259c       0x34 ./source/MIMXRT1052_Project.o
                0x6000259c                main
 .text.CLOCK_GetOscFreq
                0x600025d0       0x30 ./drivers/fsl_clock.o
 .text.CLOCK_InitExternalClk
                0x60002600       0x6c ./drivers/fsl_clock.o
                0x60002600                CLOCK_InitExternalClk
 .text.CLOCK_SwitchOsc
                0x6000266c       0x34 ./drivers/fsl_clock.o
                0x6000266c                CLOCK_SwitchOsc
 .text.CLOCK_InitRcOsc24M
                0x600026a0       0x24 ./drivers/fsl_clock.o
                0x600026a0                CLOCK_InitRcOsc24M
 .text.CLOCK_InitArmPll
                0x600026c4       0x68 ./drivers/fsl_clock.o
                0x600026c4                CLOCK_InitArmPll
 .text.CLOCK_InitSysPll
                0x6000272c       0x9c ./drivers/fsl_clock.o
                0x6000272c                CLOCK_InitSysPll
 .text.CLOCK_DeinitUsb2Pll
                0x600027c8       0x18 ./drivers/fsl_clock.o
                0x600027c8                CLOCK_DeinitUsb2Pll
 .text.CLOCK_DeinitAudioPll
                0x600027e0       0x1c ./drivers/fsl_clock.o
                0x600027e0                CLOCK_DeinitAudioPll
 .text.CLOCK_DeinitEnetPll
                0x600027fc       0x1c ./drivers/fsl_clock.o
                0x600027fc                CLOCK_DeinitEnetPll
 .text.CLOCK_GetPllFreq
                0x60002818      0x404 ./drivers/fsl_clock.o
                0x60002818                CLOCK_GetPllFreq
 .text.CLOCK_InitSysPfd
                0x60002c1c       0x64 ./drivers/fsl_clock.o
                0x60002c1c                CLOCK_InitSysPfd
 .text.CLOCK_ControlGate
                0x60002c80       0x60 ./drivers/fsl_lpuart.o
 .text.LPUART_GetInstance
                0x60002ce0       0x4c ./drivers/fsl_lpuart.o
                0x60002ce0                LPUART_GetInstance
 .text.LPUART_Init
                0x60002d2c      0x310 ./drivers/fsl_lpuart.o
                0x60002d2c                LPUART_Init
 .text.LPUART_GetDefaultConfig
                0x6000303c       0x88 ./drivers/fsl_lpuart.o
                0x6000303c                LPUART_GetDefaultConfig
 .text.LPUART_WriteBlocking
                0x600030c4       0x68 ./drivers/fsl_lpuart.o
                0x600030c4                LPUART_WriteBlocking
 .text.LPUART1_DriverIRQHandler
                0x6000312c       0x28 ./drivers/fsl_lpuart.o
                0x6000312c                LPUART1_DriverIRQHandler
 .text.LPUART2_DriverIRQHandler
                0x60003154       0x28 ./drivers/fsl_lpuart.o
                0x60003154                LPUART2_DriverIRQHandler
 .text.LPUART3_DriverIRQHandler
                0x6000317c       0x28 ./drivers/fsl_lpuart.o
                0x6000317c                LPUART3_DriverIRQHandler
 .text.LPUART4_DriverIRQHandler
                0x600031a4       0x28 ./drivers/fsl_lpuart.o
                0x600031a4                LPUART4_DriverIRQHandler
 .text.LPUART5_DriverIRQHandler
                0x600031cc       0x28 ./drivers/fsl_lpuart.o
                0x600031cc                LPUART5_DriverIRQHandler
 .text.LPUART6_DriverIRQHandler
                0x600031f4       0x28 ./drivers/fsl_lpuart.o
                0x600031f4                LPUART6_DriverIRQHandler
 .text.LPUART7_DriverIRQHandler
                0x6000321c       0x28 ./drivers/fsl_lpuart.o
                0x6000321c                LPUART7_DriverIRQHandler
 .text.LPUART8_DriverIRQHandler
                0x60003244       0x28 ./drivers/fsl_lpuart.o
                0x60003244                LPUART8_DriverIRQHandler
 .text.SystemInit
                0x6000326c      0x144 ./device/system_MIMXRT1052.o
                0x6000326c                SystemInit
 .text.HAL_UartInitCommon
                0x600033b0       0xac ./component/uart/fsl_adapter_lpuart.o
 .text.HAL_UartInit
                0x6000345c       0x84 ./component/uart/fsl_adapter_lpuart.o
                0x6000345c                HAL_UartInit
 .text.HAL_UartSendBlocking
                0x600034e0       0x64 ./component/uart/fsl_adapter_lpuart.o
                0x600034e0                HAL_UartSendBlocking
 .text.ARM_MPU_Enable
                0x60003544       0x44 ./board/board.o
 .text.ARM_MPU_Disable
                0x60003588       0x40 ./board/board.o
 .text.CLOCK_GetMux
                0x600035c8       0x44 ./board/board.o
 .text.CLOCK_GetDiv
                0x6000360c       0x44 ./board/board.o
 .text.CLOCK_GetOscFreq
                0x60003650       0x30 ./board/board.o
 .text.BOARD_DebugConsoleSrcFreq
                0x60003680       0x64 ./board/board.o
                0x60003680                BOARD_DebugConsoleSrcFreq
 .text.BOARD_ConfigMPU
                0x600036e4      0x324 ./board/board.o
                0x600036e4                BOARD_ConfigMPU
 .text.CLOCK_SetMux
                0x60003a08       0x9c ./board/clock_config.o
 .text.CLOCK_SetDiv
                0x60003aa4       0x9c ./board/clock_config.o
 .text.CLOCK_ControlGate
                0x60003b40       0x60 ./board/clock_config.o
 .text.CLOCK_SetXtalFreq
                0x60003ba0       0x20 ./board/clock_config.o
 .text.CLOCK_SetRtcXtalFreq
                0x60003bc0       0x20 ./board/clock_config.o
 .text.IOMUXC_EnableMode
                0x60003be0       0x48 ./board/clock_config.o
 .text.IOMUXC_MQSConfig
                0x60003c28       0x44 ./board/clock_config.o
 .text.BOARD_BootClockRUN
                0x60003c6c      0x674 ./board/clock_config.o
                0x60003c6c                BOARD_BootClockRUN
 .text.CLOCK_ControlGate
                0x600042e0       0x60 ./board/pin_mux.o
 .text.BOARD_InitDEBUG_UARTPins
                0x60004340       0x78 ./board/pin_mux.o
                0x60004340                BOARD_InitDEBUG_UARTPins
 .text._initio  0x600043b8       0x78 c:/nxp/mcuxpressoide_11.6.0_8187/ide/plugins/com.nxp.mcuxpresso.tools.win32_11.6.0.202112161359/tools/bin/../lib/gcc/arm-none-eabi/10.3.1/../../../../arm-none-eabi/lib/thumb/v7e-m+fp/hard\libcr_c.a(initio.o)
                0x600043b8                _initio
 .text._Cwritebuf
                0x60004430       0x6c c:/nxp/mcuxpressoide_11.6.0_8187/ide/plugins/com.nxp.mcuxpresso.tools.win32_11.6.0.202112161359/tools/bin/../lib/gcc/arm-none-eabi/10.3.1/../../../../arm-none-eabi/lib/thumb/v7e-m+fp/hard\libcr_c.a(_writebuf.o)
                0x60004430                _Cwritebuf
 .text.fflush   0x6000449c       0x3c c:/nxp/mcuxpressoide_11.6.0_8187/ide/plugins/com.nxp.mcuxpresso.tools.win32_11.6.0.202112161359/tools/bin/../lib/gcc/arm-none-eabi/10.3.1/../../../../arm-none-eabi/lib/thumb/v7e-m+fp/hard\libcr_c.a(fflush.o)
                0x6000449c                fflush
 .text.fseek    0x600044d8       0xfc c:/nxp/mcuxpressoide_11.6.0_8187/ide/plugins/com.nxp.mcuxpresso.tools.win32_11.6.0.202112161359/tools/bin/../lib/gcc/arm-none-eabi/10.3.1/../../../../arm-none-eabi/lib/thumb/v7e-m+fp/hard\libcr_c.a(fseek.o)
                0x600044d8                fseek
 .text.ftell    0x600045d4       0x44 c:/nxp/mcuxpressoide_11.6.0_8187/ide/plugins/com.nxp.mcuxpresso.tools.win32_11.6.0.202112161359/tools/bin/../lib/gcc/arm-none-eabi/10.3.1/../../../../arm-none-eabi/lib/thumb/v7e-m+fp/hard\libcr_c.a(ftell.o)
                0x600045d4                ftell
 .text.DbgConsole_PrintCallback
                0x60004618       0x66 ./utilities/fsl_debug_console.o
 .text.DbgConsole_Printf
                0x6000467e       0x2c ./utilities/fsl_debug_console.o
                0x6000467e                DbgConsole_Printf
 .text.PrintGetWidth
                0x600046aa       0x6a ./utilities/fsl_str.o
 .text.PrintGetPrecision
                0x60004714       0x8c ./utilities/fsl_str.o
 .text.PrintIsobpu
                0x600047a0       0x38 ./utilities/fsl_str.o
 .text.PrintIsdi
                0x600047d8       0x2c ./utilities/fsl_str.o
 .text.PrintOutputdifFobpu
                0x60004804       0x44 ./utilities/fsl_str.o
 .text.PrintOutputxX
                0x60004848       0x44 ./utilities/fsl_str.o
 .text.PrintIsfF
                0x6000488c       0x2c ./utilities/fsl_str.o
 .text.PrintIsxX
                0x600048b8       0x2c ./utilities/fsl_str.o
 .text.PrintFilterLengthFlag
                0x600048e4       0x3e ./utilities/fsl_str.o
 .text.PrintGetRadixFromobpu
                0x60004922       0x40 ./utilities/fsl_str.o
 .text.ConvertRadixNumToString
                0x60004962       0xc2 ./utilities/fsl_str.o
 .text.StrFormatPrintf
                0x60004a24      0x2ac ./utilities/fsl_str.o
                0x60004a24                StrFormatPrintf
 .text.DMA0_DMA16_IRQHandler
                0x60004cd0        0x8 ./startup/startup_mimxrt1052.o
                0x60004cd0                DMA0_DMA16_IRQHandler
 .text.DMA1_DMA17_IRQHandler
                0x60004cd8        0x8 ./startup/startup_mimxrt1052.o
                0x60004cd8                DMA1_DMA17_IRQHandler
 .text.DMA2_DMA18_IRQHandler
                0x60004ce0        0x8 ./startup/startup_mimxrt1052.o
                0x60004ce0                DMA2_DMA18_IRQHandler
 .text.DMA3_DMA19_IRQHandler
                0x60004ce8        0x8 ./startup/startup_mimxrt1052.o
                0x60004ce8                DMA3_DMA19_IRQHandler
 .text.DMA4_DMA20_IRQHandler
                0x60004cf0        0x8 ./startup/startup_mimxrt1052.o
                0x60004cf0                DMA4_DMA20_IRQHandler
 .text.DMA5_DMA21_IRQHandler
                0x60004cf8        0x8 ./startup/startup_mimxrt1052.o
                0x60004cf8                DMA5_DMA21_IRQHandler
 .text.DMA6_DMA22_IRQHandler
                0x60004d00        0x8 ./startup/startup_mimxrt1052.o
                0x60004d00                DMA6_DMA22_IRQHandler
 .text.DMA7_DMA23_IRQHandler
                0x60004d08        0x8 ./startup/startup_mimxrt1052.o
                0x60004d08                DMA7_DMA23_IRQHandler
 .text.DMA8_DMA24_IRQHandler
                0x60004d10        0x8 ./startup/startup_mimxrt1052.o
                0x60004d10                DMA8_DMA24_IRQHandler
 .text.DMA9_DMA25_IRQHandler
                0x60004d18        0x8 ./startup/startup_mimxrt1052.o
                0x60004d18                DMA9_DMA25_IRQHandler
 .text.DMA10_DMA26_IRQHandler
                0x60004d20        0x8 ./startup/startup_mimxrt1052.o
                0x60004d20                DMA10_DMA26_IRQHandler
 .text.DMA11_DMA27_IRQHandler
                0x60004d28        0x8 ./startup/startup_mimxrt1052.o
                0x60004d28                DMA11_DMA27_IRQHandler
 .text.DMA12_DMA28_IRQHandler
                0x60004d30        0x8 ./startup/startup_mimxrt1052.o
                0x60004d30                DMA12_DMA28_IRQHandler
 .text.DMA13_DMA29_IRQHandler
                0x60004d38        0x8 ./startup/startup_mimxrt1052.o
                0x60004d38                DMA13_DMA29_IRQHandler
 .text.DMA14_DMA30_IRQHandler
                0x60004d40        0x8 ./startup/startup_mimxrt1052.o
                0x60004d40                DMA14_DMA30_IRQHandler
 .text.DMA15_DMA31_IRQHandler
                0x60004d48        0x8 ./startup/startup_mimxrt1052.o
                0x60004d48                DMA15_DMA31_IRQHandler
 .text.DMA_ERROR_IRQHandler
                0x60004d50        0x8 ./startup/startup_mimxrt1052.o
                0x60004d50                DMA_ERROR_IRQHandler
 .text.CTI0_ERROR_IRQHandler
                0x60004d58        0x8 ./startup/startup_mimxrt1052.o
                0x60004d58                CTI0_ERROR_IRQHandler
 .text.CTI1_ERROR_IRQHandler
                0x60004d60        0x8 ./startup/startup_mimxrt1052.o
                0x60004d60                CTI1_ERROR_IRQHandler
 .text.CORE_IRQHandler
                0x60004d68        0x8 ./startup/startup_mimxrt1052.o
                0x60004d68                CORE_IRQHandler
 .text.LPUART1_IRQHandler
                0x60004d70        0x8 ./startup/startup_mimxrt1052.o
                0x60004d70                LPUART1_IRQHandler
 .text.LPUART2_IRQHandler
                0x60004d78        0x8 ./startup/startup_mimxrt1052.o
                0x60004d78                LPUART2_IRQHandler
 .text.LPUART3_IRQHandler
                0x60004d80        0x8 ./startup/startup_mimxrt1052.o
                0x60004d80                LPUART3_IRQHandler
 .text.LPUART4_IRQHandler
                0x60004d88        0x8 ./startup/startup_mimxrt1052.o
                0x60004d88                LPUART4_IRQHandler
 .text.LPUART5_IRQHandler
                0x60004d90        0x8 ./startup/startup_mimxrt1052.o
                0x60004d90                LPUART5_IRQHandler
 .text.LPUART6_IRQHandler
                0x60004d98        0x8 ./startup/startup_mimxrt1052.o
                0x60004d98                LPUART6_IRQHandler
 .text.LPUART7_IRQHandler
                0x60004da0        0x8 ./startup/startup_mimxrt1052.o
                0x60004da0                LPUART7_IRQHandler
 .text.LPUART8_IRQHandler
                0x60004da8        0x8 ./startup/startup_mimxrt1052.o
                0x60004da8                LPUART8_IRQHandler
 .text.LPI2C1_IRQHandler
                0x60004db0        0x8 ./startup/startup_mimxrt1052.o
                0x60004db0                LPI2C1_IRQHandler
 .text.LPI2C2_IRQHandler
                0x60004db8        0x8 ./startup/startup_mimxrt1052.o
                0x60004db8                LPI2C2_IRQHandler
 .text.LPI2C3_IRQHandler
                0x60004dc0        0x8 ./startup/startup_mimxrt1052.o
                0x60004dc0                LPI2C3_IRQHandler
 .text.LPI2C4_IRQHandler
                0x60004dc8        0x8 ./startup/startup_mimxrt1052.o
                0x60004dc8                LPI2C4_IRQHandler
 .text.LPSPI1_IRQHandler
                0x60004dd0        0x8 ./startup/startup_mimxrt1052.o
                0x60004dd0                LPSPI1_IRQHandler
 .text.LPSPI2_IRQHandler
                0x60004dd8        0x8 ./startup/startup_mimxrt1052.o
                0x60004dd8                LPSPI2_IRQHandler
 .text.LPSPI3_IRQHandler
                0x60004de0        0x8 ./startup/startup_mimxrt1052.o
                0x60004de0                LPSPI3_IRQHandler
 .text.LPSPI4_IRQHandler
                0x60004de8        0x8 ./startup/startup_mimxrt1052.o
                0x60004de8                LPSPI4_IRQHandler
 .text.CAN1_IRQHandler
                0x60004df0        0x8 ./startup/startup_mimxrt1052.o
                0x60004df0                CAN1_IRQHandler
 .text.CAN2_IRQHandler
                0x60004df8        0x8 ./startup/startup_mimxrt1052.o
                0x60004df8                CAN2_IRQHandler
 .text.FLEXRAM_IRQHandler
                0x60004e00        0x8 ./startup/startup_mimxrt1052.o
                0x60004e00                FLEXRAM_IRQHandler
 .text.KPP_IRQHandler
                0x60004e08        0x8 ./startup/startup_mimxrt1052.o
                0x60004e08                KPP_IRQHandler
 .text.TSC_DIG_IRQHandler
                0x60004e10        0x8 ./startup/startup_mimxrt1052.o
                0x60004e10                TSC_DIG_IRQHandler
 .text.GPR_IRQ_IRQHandler
                0x60004e18        0x8 ./startup/startup_mimxrt1052.o
                0x60004e18                GPR_IRQ_IRQHandler
 .text.LCDIF_IRQHandler
                0x60004e20        0x8 ./startup/startup_mimxrt1052.o
                0x60004e20                LCDIF_IRQHandler
 .text.CSI_IRQHandler
                0x60004e28        0x8 ./startup/startup_mimxrt1052.o
                0x60004e28                CSI_IRQHandler
 .text.PXP_IRQHandler
                0x60004e30        0x8 ./startup/startup_mimxrt1052.o
                0x60004e30                PXP_IRQHandler
 .text.WDOG2_IRQHandler
                0x60004e38        0x8 ./startup/startup_mimxrt1052.o
                0x60004e38                WDOG2_IRQHandler
 .text.SNVS_HP_WRAPPER_IRQHandler
                0x60004e40        0x8 ./startup/startup_mimxrt1052.o
                0x60004e40                SNVS_HP_WRAPPER_IRQHandler
 .text.SNVS_HP_WRAPPER_TZ_IRQHandler
                0x60004e48        0x8 ./startup/startup_mimxrt1052.o
                0x60004e48                SNVS_HP_WRAPPER_TZ_IRQHandler
 .text.SNVS_LP_WRAPPER_IRQHandler
                0x60004e50        0x8 ./startup/startup_mimxrt1052.o
                0x60004e50                SNVS_LP_WRAPPER_IRQHandler
 .text.CSU_IRQHandler
                0x60004e58        0x8 ./startup/startup_mimxrt1052.o
                0x60004e58                CSU_IRQHandler
 .text.DCP_IRQHandler
                0x60004e60        0x8 ./startup/startup_mimxrt1052.o
                0x60004e60                DCP_IRQHandler
 .text.DCP_VMI_IRQHandler
                0x60004e68        0x8 ./startup/startup_mimxrt1052.o
                0x60004e68                DCP_VMI_IRQHandler
 .text.Reserved68_IRQHandler
                0x60004e70        0x8 ./startup/startup_mimxrt1052.o
                0x60004e70                Reserved68_IRQHandler
 .text.TRNG_IRQHandler
                0x60004e78        0x8 ./startup/startup_mimxrt1052.o
                0x60004e78                TRNG_IRQHandler
 .text.SJC_IRQHandler
                0x60004e80        0x8 ./startup/startup_mimxrt1052.o
                0x60004e80                SJC_IRQHandler
 .text.BEE_IRQHandler
                0x60004e88        0x8 ./startup/startup_mimxrt1052.o
                0x60004e88                BEE_IRQHandler
 .text.SAI1_IRQHandler
                0x60004e90        0x8 ./startup/startup_mimxrt1052.o
                0x60004e90                SAI1_IRQHandler
 .text.SAI2_IRQHandler
                0x60004e98        0x8 ./startup/startup_mimxrt1052.o
                0x60004e98                SAI2_IRQHandler
 .text.SAI3_RX_IRQHandler
                0x60004ea0        0x8 ./startup/startup_mimxrt1052.o
                0x60004ea0                SAI3_RX_IRQHandler
 .text.SAI3_TX_IRQHandler
                0x60004ea8        0x8 ./startup/startup_mimxrt1052.o
                0x60004ea8                SAI3_TX_IRQHandler
 .text.SPDIF_IRQHandler
                0x60004eb0        0x8 ./startup/startup_mimxrt1052.o
                0x60004eb0                SPDIF_IRQHandler
 .text.PMU_EVENT_IRQHandler
                0x60004eb8        0x8 ./startup/startup_mimxrt1052.o
                0x60004eb8                PMU_EVENT_IRQHandler
 .text.Reserved78_IRQHandler
                0x60004ec0        0x8 ./startup/startup_mimxrt1052.o
                0x60004ec0                Reserved78_IRQHandler
 .text.TEMP_LOW_HIGH_IRQHandler
                0x60004ec8        0x8 ./startup/startup_mimxrt1052.o
                0x60004ec8                TEMP_LOW_HIGH_IRQHandler
 .text.TEMP_PANIC_IRQHandler
                0x60004ed0        0x8 ./startup/startup_mimxrt1052.o
                0x60004ed0                TEMP_PANIC_IRQHandler
 .text.USB_PHY1_IRQHandler
                0x60004ed8        0x8 ./startup/startup_mimxrt1052.o
                0x60004ed8                USB_PHY1_IRQHandler
 .text.USB_PHY2_IRQHandler
                0x60004ee0        0x8 ./startup/startup_mimxrt1052.o
                0x60004ee0                USB_PHY2_IRQHandler
 .text.ADC1_IRQHandler
                0x60004ee8        0x8 ./startup/startup_mimxrt1052.o
                0x60004ee8                ADC1_IRQHandler
 .text.ADC2_IRQHandler
                0x60004ef0        0x8 ./startup/startup_mimxrt1052.o
                0x60004ef0                ADC2_IRQHandler
 .text.DCDC_IRQHandler
                0x60004ef8        0x8 ./startup/startup_mimxrt1052.o
                0x60004ef8                DCDC_IRQHandler
 .text.Reserved86_IRQHandler
                0x60004f00        0x8 ./startup/startup_mimxrt1052.o
                0x60004f00                Reserved86_IRQHandler
 .text.Reserved87_IRQHandler
                0x60004f08        0x8 ./startup/startup_mimxrt1052.o
                0x60004f08                Reserved87_IRQHandler
 .text.GPIO1_INT0_IRQHandler
                0x60004f10        0x8 ./startup/startup_mimxrt1052.o
                0x60004f10                GPIO1_INT0_IRQHandler
 .text.GPIO1_INT1_IRQHandler
                0x60004f18        0x8 ./startup/startup_mimxrt1052.o
                0x60004f18                GPIO1_INT1_IRQHandler
 .text.GPIO1_INT2_IRQHandler
                0x60004f20        0x8 ./startup/startup_mimxrt1052.o
                0x60004f20                GPIO1_INT2_IRQHandler
 .text.GPIO1_INT3_IRQHandler
                0x60004f28        0x8 ./startup/startup_mimxrt1052.o
                0x60004f28                GPIO1_INT3_IRQHandler
 .text.GPIO1_INT4_IRQHandler
                0x60004f30        0x8 ./startup/startup_mimxrt1052.o
                0x60004f30                GPIO1_INT4_IRQHandler
 .text.GPIO1_INT5_IRQHandler
                0x60004f38        0x8 ./startup/startup_mimxrt1052.o
                0x60004f38                GPIO1_INT5_IRQHandler
 .text.GPIO1_INT6_IRQHandler
                0x60004f40        0x8 ./startup/startup_mimxrt1052.o
                0x60004f40                GPIO1_INT6_IRQHandler
 .text.GPIO1_INT7_IRQHandler
                0x60004f48        0x8 ./startup/startup_mimxrt1052.o
                0x60004f48                GPIO1_INT7_IRQHandler
 .text.GPIO1_Combined_0_15_IRQHandler
                0x60004f50        0x8 ./startup/startup_mimxrt1052.o
                0x60004f50                GPIO1_Combined_0_15_IRQHandler
 .text.GPIO1_Combined_16_31_IRQHandler
                0x60004f58        0x8 ./startup/startup_mimxrt1052.o
                0x60004f58                GPIO1_Combined_16_31_IRQHandler
 .text.GPIO2_Combined_0_15_IRQHandler
                0x60004f60        0x8 ./startup/startup_mimxrt1052.o
                0x60004f60                GPIO2_Combined_0_15_IRQHandler
 .text.GPIO2_Combined_16_31_IRQHandler
                0x60004f68        0x8 ./startup/startup_mimxrt1052.o
                0x60004f68                GPIO2_Combined_16_31_IRQHandler
 .text.GPIO3_Combined_0_15_IRQHandler
                0x60004f70        0x8 ./startup/startup_mimxrt1052.o
                0x60004f70                GPIO3_Combined_0_15_IRQHandler
 .text.GPIO3_Combined_16_31_IRQHandler
                0x60004f78        0x8 ./startup/startup_mimxrt1052.o
                0x60004f78                GPIO3_Combined_16_31_IRQHandler
 .text.GPIO4_Combined_0_15_IRQHandler
                0x60004f80        0x8 ./startup/startup_mimxrt1052.o
                0x60004f80                GPIO4_Combined_0_15_IRQHandler
 .text.GPIO4_Combined_16_31_IRQHandler
                0x60004f88        0x8 ./startup/startup_mimxrt1052.o
                0x60004f88                GPIO4_Combined_16_31_IRQHandler
 .text.GPIO5_Combined_0_15_IRQHandler
                0x60004f90        0x8 ./startup/startup_mimxrt1052.o
                0x60004f90                GPIO5_Combined_0_15_IRQHandler
 .text.GPIO5_Combined_16_31_IRQHandler
                0x60004f98        0x8 ./startup/startup_mimxrt1052.o
                0x60004f98                GPIO5_Combined_16_31_IRQHandler
 .text.FLEXIO1_IRQHandler
                0x60004fa0        0x8 ./startup/startup_mimxrt1052.o
                0x60004fa0                FLEXIO1_IRQHandler
 .text.FLEXIO2_IRQHandler
                0x60004fa8        0x8 ./startup/startup_mimxrt1052.o
                0x60004fa8                FLEXIO2_IRQHandler
 .text.WDOG1_IRQHandler
                0x60004fb0        0x8 ./startup/startup_mimxrt1052.o
                0x60004fb0                WDOG1_IRQHandler
 .text.RTWDOG_IRQHandler
                0x60004fb8        0x8 ./startup/startup_mimxrt1052.o
                0x60004fb8                RTWDOG_IRQHandler
 .text.EWM_IRQHandler
                0x60004fc0        0x8 ./startup/startup_mimxrt1052.o
                0x60004fc0                EWM_IRQHandler
 .text.CCM_1_IRQHandler
                0x60004fc8        0x8 ./startup/startup_mimxrt1052.o
                0x60004fc8                CCM_1_IRQHandler
 .text.CCM_2_IRQHandler
                0x60004fd0        0x8 ./startup/startup_mimxrt1052.o
                0x60004fd0                CCM_2_IRQHandler
 .text.GPC_IRQHandler
                0x60004fd8        0x8 ./startup/startup_mimxrt1052.o
                0x60004fd8                GPC_IRQHandler
 .text.SRC_IRQHandler
                0x60004fe0        0x8 ./startup/startup_mimxrt1052.o
                0x60004fe0                SRC_IRQHandler
 .text.Reserved115_IRQHandler
                0x60004fe8        0x8 ./startup/startup_mimxrt1052.o
                0x60004fe8                Reserved115_IRQHandler
 .text.GPT1_IRQHandler
                0x60004ff0        0x8 ./startup/startup_mimxrt1052.o
                0x60004ff0                GPT1_IRQHandler
 .text.GPT2_IRQHandler
                0x60004ff8        0x8 ./startup/startup_mimxrt1052.o
                0x60004ff8                GPT2_IRQHandler
 .text.PWM1_0_IRQHandler
                0x60005000        0x8 ./startup/startup_mimxrt1052.o
                0x60005000                PWM1_0_IRQHandler
 .text.PWM1_1_IRQHandler
                0x60005008        0x8 ./startup/startup_mimxrt1052.o
                0x60005008                PWM1_1_IRQHandler
 .text.PWM1_2_IRQHandler
                0x60005010        0x8 ./startup/startup_mimxrt1052.o
                0x60005010                PWM1_2_IRQHandler
 .text.PWM1_3_IRQHandler
                0x60005018        0x8 ./startup/startup_mimxrt1052.o
                0x60005018                PWM1_3_IRQHandler
 .text.PWM1_FAULT_IRQHandler
                0x60005020        0x8 ./startup/startup_mimxrt1052.o
                0x60005020                PWM1_FAULT_IRQHandler
 .text.Reserved123_IRQHandler
                0x60005028        0x8 ./startup/startup_mimxrt1052.o
                0x60005028                Reserved123_IRQHandler
 .text.FLEXSPI_IRQHandler
                0x60005030        0x8 ./startup/startup_mimxrt1052.o
                0x60005030                FLEXSPI_IRQHandler
 .text.SEMC_IRQHandler
                0x60005038        0x8 ./startup/startup_mimxrt1052.o
                0x60005038                SEMC_IRQHandler
 .text.USDHC1_IRQHandler
                0x60005040        0x8 ./startup/startup_mimxrt1052.o
                0x60005040                USDHC1_IRQHandler
 .text.USDHC2_IRQHandler
                0x60005048        0x8 ./startup/startup_mimxrt1052.o
                0x60005048                USDHC2_IRQHandler
 .text.USB_OTG2_IRQHandler
                0x60005050        0x8 ./startup/startup_mimxrt1052.o
                0x60005050                USB_OTG2_IRQHandler
 .text.USB_OTG1_IRQHandler
                0x60005058        0x8 ./startup/startup_mimxrt1052.o
                0x60005058                USB_OTG1_IRQHandler
 .text.ENET_IRQHandler
                0x60005060        0x8 ./startup/startup_mimxrt1052.o
                0x60005060                ENET_IRQHandler
 .text.ENET_1588_Timer_IRQHandler
                0x60005068        0x8 ./startup/startup_mimxrt1052.o
                0x60005068                ENET_1588_Timer_IRQHandler
 .text.XBAR1_IRQ_0_1_IRQHandler
                0x60005070        0x8 ./startup/startup_mimxrt1052.o
                0x60005070                XBAR1_IRQ_0_1_IRQHandler
 .text.XBAR1_IRQ_2_3_IRQHandler
                0x60005078        0x8 ./startup/startup_mimxrt1052.o
                0x60005078                XBAR1_IRQ_2_3_IRQHandler
 .text.ADC_ETC_IRQ0_IRQHandler
                0x60005080        0x8 ./startup/startup_mimxrt1052.o
                0x60005080                ADC_ETC_IRQ0_IRQHandler
 .text.ADC_ETC_IRQ1_IRQHandler
                0x60005088        0x8 ./startup/startup_mimxrt1052.o
                0x60005088                ADC_ETC_IRQ1_IRQHandler
 .text.ADC_ETC_IRQ2_IRQHandler
                0x60005090        0x8 ./startup/startup_mimxrt1052.o
                0x60005090                ADC_ETC_IRQ2_IRQHandler
 .text.ADC_ETC_ERROR_IRQ_IRQHandler
                0x60005098        0x8 ./startup/startup_mimxrt1052.o
                0x60005098                ADC_ETC_ERROR_IRQ_IRQHandler
 .text.PIT_IRQHandler
                0x600050a0        0x8 ./startup/startup_mimxrt1052.o
                0x600050a0                PIT_IRQHandler
 .text.ACMP1_IRQHandler
                0x600050a8        0x8 ./startup/startup_mimxrt1052.o
                0x600050a8                ACMP1_IRQHandler
 .text.ACMP2_IRQHandler
                0x600050b0        0x8 ./startup/startup_mimxrt1052.o
                0x600050b0                ACMP2_IRQHandler
 .text.ACMP3_IRQHandler
                0x600050b8        0x8 ./startup/startup_mimxrt1052.o
                0x600050b8                ACMP3_IRQHandler
 .text.ACMP4_IRQHandler
                0x600050c0        0x8 ./startup/startup_mimxrt1052.o
                0x600050c0                ACMP4_IRQHandler
 .text.Reserved143_IRQHandler
                0x600050c8        0x8 ./startup/startup_mimxrt1052.o
                0x600050c8                Reserved143_IRQHandler
 .text.Reserved144_IRQHandler
                0x600050d0        0x8 ./startup/startup_mimxrt1052.o
                0x600050d0                Reserved144_IRQHandler
 .text.ENC1_IRQHandler
                0x600050d8        0x8 ./startup/startup_mimxrt1052.o
                0x600050d8                ENC1_IRQHandler
 .text.ENC2_IRQHandler
                0x600050e0        0x8 ./startup/startup_mimxrt1052.o
                0x600050e0                ENC2_IRQHandler
 .text.ENC3_IRQHandler
                0x600050e8        0x8 ./startup/startup_mimxrt1052.o
                0x600050e8                ENC3_IRQHandler
 .text.ENC4_IRQHandler
                0x600050f0        0x8 ./startup/startup_mimxrt1052.o
                0x600050f0                ENC4_IRQHandler
 .text.TMR1_IRQHandler
                0x600050f8        0x8 ./startup/startup_mimxrt1052.o
                0x600050f8                TMR1_IRQHandler
 .text.TMR2_IRQHandler
                0x60005100        0x8 ./startup/startup_mimxrt1052.o
                0x60005100                TMR2_IRQHandler
 .text.TMR3_IRQHandler
                0x60005108        0x8 ./startup/startup_mimxrt1052.o
                0x60005108                TMR3_IRQHandler
 .text.TMR4_IRQHandler
                0x60005110        0x8 ./startup/startup_mimxrt1052.o
                0x60005110                TMR4_IRQHandler
 .text.PWM2_0_IRQHandler
                0x60005118        0x8 ./startup/startup_mimxrt1052.o
                0x60005118                PWM2_0_IRQHandler
 .text.PWM2_1_IRQHandler
                0x60005120        0x8 ./startup/startup_mimxrt1052.o
                0x60005120                PWM2_1_IRQHandler
 .text.PWM2_2_IRQHandler
                0x60005128        0x8 ./startup/startup_mimxrt1052.o
                0x60005128                PWM2_2_IRQHandler
 .text.PWM2_3_IRQHandler
                0x60005130        0x8 ./startup/startup_mimxrt1052.o
                0x60005130                PWM2_3_IRQHandler
 .text.PWM2_FAULT_IRQHandler
                0x60005138        0x8 ./startup/startup_mimxrt1052.o
                0x60005138                PWM2_FAULT_IRQHandler
 .text.PWM3_0_IRQHandler
                0x60005140        0x8 ./startup/startup_mimxrt1052.o
                0x60005140                PWM3_0_IRQHandler
 .text.PWM3_1_IRQHandler
                0x60005148        0x8 ./startup/startup_mimxrt1052.o
                0x60005148                PWM3_1_IRQHandler
 .text.PWM3_2_IRQHandler
                0x60005150        0x8 ./startup/startup_mimxrt1052.o
                0x60005150                PWM3_2_IRQHandler
 .text.PWM3_3_IRQHandler
                0x60005158        0x8 ./startup/startup_mimxrt1052.o
                0x60005158                PWM3_3_IRQHandler
 .text.PWM3_FAULT_IRQHandler
                0x60005160        0x8 ./startup/startup_mimxrt1052.o
                0x60005160                PWM3_FAULT_IRQHandler
 .text.PWM4_0_IRQHandler
                0x60005168        0x8 ./startup/startup_mimxrt1052.o
                0x60005168                PWM4_0_IRQHandler
 .text.PWM4_1_IRQHandler
                0x60005170        0x8 ./startup/startup_mimxrt1052.o
                0x60005170                PWM4_1_IRQHandler
 .text.PWM4_2_IRQHandler
                0x60005178        0x8 ./startup/startup_mimxrt1052.o
                0x60005178                PWM4_2_IRQHandler
 .text.PWM4_3_IRQHandler
                0x60005180        0x8 ./startup/startup_mimxrt1052.o
                0x60005180                PWM4_3_IRQHandler
 .text.PWM4_FAULT_IRQHandler
                0x60005188        0x8 ./startup/startup_mimxrt1052.o
                0x60005188                PWM4_FAULT_IRQHandler
 .text.HardFault_Handler
                0x60005190       0x2c ./source/semihost_hardfault.o
                0x60005190                HardFault_Handler
 .text.CLOCK_IsPllBypassed
                0x600051bc       0x32 ./drivers/fsl_clock.o
 .text.CLOCK_IsPllEnabled
                0x600051ee       0x3c ./drivers/fsl_clock.o
 .text.CLOCK_GetPllBypassRefClk
                0x6000522a       0x34 ./drivers/fsl_clock.o
 .text._SDK_AtomicLocalClearAndSet4Byte
                0x6000525e       0x50 ./drivers/fsl_lpuart.o
 .text.CLOCK_EnableClock
                0x600052ae       0x1e ./drivers/fsl_lpuart.o
 .text.LPUART_SoftwareReset
                0x600052cc       0x2c ./drivers/fsl_lpuart.o
 .text.SystemInitHook
                0x600052f8        0xe ./device/system_MIMXRT1052.o
                0x600052f8                SystemInitHook
 .text.HAL_UartGetStatus
                0x60005306       0x28 ./component/uart/fsl_adapter_lpuart.o
 .text.DisableGlobalIRQ
                0x6000532e       0x22 ./component/serial_manager/fsl_component_serial_manager.o
 .text.EnableGlobalIRQ
                0x60005350       0x20 ./component/serial_manager/fsl_component_serial_manager.o
 .text.SerialManager_StartWriting
                0x60005370       0x38 ./component/serial_manager/fsl_component_serial_manager.o
 .text.SerialManager_Write
                0x600053a8       0x44 ./component/serial_manager/fsl_component_serial_manager.o
 .text.SerialManager_Init
                0x600053ec       0x60 ./component/serial_manager/fsl_component_serial_manager.o
                0x600053ec                SerialManager_Init
 .text.SerialManager_OpenWriteHandle
                0x6000544c       0x50 ./component/serial_manager/fsl_component_serial_manager.o
                0x6000544c                SerialManager_OpenWriteHandle
 .text.SerialManager_OpenReadHandle
                0x6000549c       0x60 ./component/serial_manager/fsl_component_serial_manager.o
                0x6000549c                SerialManager_OpenReadHandle
 .text.SerialManager_WriteBlocking
                0x600054fc       0x20 ./component/serial_manager/fsl_component_serial_manager.o
                0x600054fc                SerialManager_WriteBlocking
 .text.Serial_UartInit
                0x6000551c       0x3e ./component/serial_manager/fsl_component_serial_port_uart.o
                0x6000551c                Serial_UartInit
 .text.Serial_UartWrite
                0x6000555a       0x38 ./component/serial_manager/fsl_component_serial_port_uart.o
                0x6000555a                Serial_UartWrite
 .text.BOARD_InitDebugConsole
                0x60005592       0x22 ./board/board.o
                0x60005592                BOARD_InitDebugConsole
 .text._SDK_AtomicLocalClearAndSet4Byte
                0x600055b4       0x50 ./board/clock_config.o
 .text.CLOCK_DisableClock
                0x60005604       0x1e ./board/clock_config.o
 .text.CLOCK_SetPllBypass
                0x60005622       0x4e ./board/clock_config.o
 .text.IOMUXC_SetSaiMClkClockSource
                0x60005670       0x6c ./board/clock_config.o
 .text.BOARD_InitBootClocks
                0x600056dc        0xc ./board/clock_config.o
                0x600056dc                BOARD_InitBootClocks
 .text.BOARD_InitPeripherals
                0x600056e8        0xe ./board/peripherals.o
                0x600056e8                BOARD_InitPeripherals
 .text.BOARD_InitBootPeripherals
                0x600056f6        0xc ./board/peripherals.o
                0x600056f6                BOARD_InitBootPeripherals
 .text._SDK_AtomicLocalClearAndSet4Byte
                0x60005702       0x50 ./board/pin_mux.o
 .text.CLOCK_EnableClock
                0x60005752       0x1e ./board/pin_mux.o
 .text.IOMUXC_SetPinMux
                0x60005770       0x3a ./board/pin_mux.o
 .text.IOMUXC_SetPinConfig
                0x600057aa       0x26 ./board/pin_mux.o
 .text.BOARD_InitBootPins
                0x600057d0       0x10 ./board/pin_mux.o
                0x600057d0                BOARD_InitBootPins
 .text.BOARD_InitPins
                0x600057e0        0xe ./board/pin_mux.o
                0x600057e0                BOARD_InitPins
 .text.__main   0x600057ee        0xe c:/nxp/mcuxpressoide_11.6.0_8187/ide/plugins/com.nxp.mcuxpresso.tools.win32_11.6.0.202112161359/tools/bin/../lib/gcc/arm-none-eabi/10.3.1/../../../../arm-none-eabi/lib/thumb/v7e-m+fp/hard\libcr_nohost_nf.a(_cr__main.o)
                0x600057ee                __main
 .text.memcpy   0x600057fc        0x4 c:/nxp/mcuxpressoide_11.6.0_8187/ide/plugins/com.nxp.mcuxpresso.tools.win32_11.6.0.202112161359/tools/bin/../lib/gcc/arm-none-eabi/10.3.1/../../../../arm-none-eabi/lib/thumb/v7e-m+fp/hard\libcr_c.a(memcpy.o)
                0x600057fc                memcpy
 .text.memset   0x60005800        0x4 c:/nxp/mcuxpressoide_11.6.0_8187/ide/plugins/com.nxp.mcuxpresso.tools.win32_11.6.0.202112161359/tools/bin/../lib/gcc/arm-none-eabi/10.3.1/../../../../arm-none-eabi/lib/thumb/v7e-m+fp/hard\libcr_c.a(memset.o)
                0x60005800                memset
 .text.free     0x60005804       0x30 c:/nxp/mcuxpressoide_11.6.0_8187/ide/plugins/com.nxp.mcuxpresso.tools.win32_11.6.0.202112161359/tools/bin/../lib/gcc/arm-none-eabi/10.3.1/../../../../arm-none-eabi/lib/thumb/v7e-m+fp/hard\libcr_c.a(alloc.o)
                0x60005804                free
 .text.setvbuf  0x60005834       0x3e c:/nxp/mcuxpressoide_11.6.0_8187/ide/plugins/com.nxp.mcuxpresso.tools.win32_11.6.0.202112161359/tools/bin/../lib/gcc/arm-none-eabi/10.3.1/../../../../arm-none-eabi/lib/thumb/v7e-m+fp/hard\libcr_c.a(setvbuf.o)
                0x60005834                setvbuf
 .text.strlen   0x60005872       0x48 c:/nxp/mcuxpressoide_11.6.0_8187/ide/plugins/com.nxp.mcuxpresso.tools.win32_11.6.0.202112161359/tools/bin/../lib/gcc/arm-none-eabi/10.3.1/../../../../arm-none-eabi/lib/thumb/v7e-m+fp/hard\libcr_c.a(strlen.o)
                0x60005872                strlen
 .text._deferredlazyseek
                0x600058ba       0x40 c:/nxp/mcuxpressoide_11.6.0_8187/ide/plugins/com.nxp.mcuxpresso.tools.win32_11.6.0.202112161359/tools/bin/../lib/gcc/arm-none-eabi/10.3.1/../../../../arm-none-eabi/lib/thumb/v7e-m+fp/hard\libcr_c.a(_deferredlazyseek.o)
                0x600058ba                _deferredlazyseek
 .text._fdopen  0x600058fa       0x68 c:/nxp/mcuxpressoide_11.6.0_8187/ide/plugins/com.nxp.mcuxpresso.tools.win32_11.6.0.202112161359/tools/bin/../lib/gcc/arm-none-eabi/10.3.1/../../../../arm-none-eabi/lib/thumb/v7e-m+fp/hard\libcr_c.a(_fdopen.o)
                0x600058fa                _fdopen
 .text._fflush  0x60005962       0x52 c:/nxp/mcuxpressoide_11.6.0_8187/ide/plugins/com.nxp.mcuxpresso.tools.win32_11.6.0.202112161359/tools/bin/../lib/gcc/arm-none-eabi/10.3.1/../../../../arm-none-eabi/lib/thumb/v7e-m+fp/hard\libcr_c.a(_fflush.o)
                0x60005962                _fflush
 .text.fclose   0x600059b4       0x58 c:/nxp/mcuxpressoide_11.6.0_8187/ide/plugins/com.nxp.mcuxpresso.tools.win32_11.6.0.202112161359/tools/bin/../lib/gcc/arm-none-eabi/10.3.1/../../../../arm-none-eabi/lib/thumb/v7e-m+fp/hard\libcr_c.a(fclose.o)
                0x600059b4                fclose
 .text.remove   0x60005a0c       0x14 c:/nxp/mcuxpressoide_11.6.0_8187/ide/plugins/com.nxp.mcuxpresso.tools.win32_11.6.0.202112161359/tools/bin/../lib/gcc/arm-none-eabi/10.3.1/../../../../arm-none-eabi/lib/thumb/v7e-m+fp/hard\libcr_c.a(remove.o)
                0x60005a0c                remove
 .text._do_fflush
                0x60005a20       0x40 c:/nxp/mcuxpressoide_11.6.0_8187/ide/plugins/com.nxp.mcuxpresso.tools.win32_11.6.0.202112161359/tools/bin/../lib/gcc/arm-none-eabi/10.3.1/../../../../arm-none-eabi/lib/thumb/v7e-m+fp/hard\libcr_c.a(_do_fflush.o)
                0x60005a20                _do_fflush
 .text.__aeabi_division_uldivmod
                0x60005a60      0x174 c:/nxp/mcuxpressoide_11.6.0_8187/ide/plugins/com.nxp.mcuxpresso.tools.win32_11.6.0.202112161359/tools/bin/../lib/gcc/arm-none-eabi/10.3.1/thumb/v7e-m+fp/hard\libcr_eabihelpers.a(division_64.o)
                0x60005a60                __aeabi_uldivmod
                0x60005a64                __bhs_ldivmod1
 .text.__aeabi_division_idiv0
                0x60005bd4        0x2 c:/nxp/mcuxpressoide_11.6.0_8187/ide/plugins/com.nxp.mcuxpresso.tools.win32_11.6.0.202112161359/tools/bin/../lib/gcc/arm-none-eabi/10.3.1/thumb/v7e-m+fp/hard\libcr_eabihelpers.a(division_idiv0.o)
                0x60005bd4                __aeabi_idiv0
 .text.__aeabi_memcpy
                0x60005bd6       0x34 c:/nxp/mcuxpressoide_11.6.0_8187/ide/plugins/com.nxp.mcuxpresso.tools.win32_11.6.0.202112161359/tools/bin/../lib/gcc/arm-none-eabi/10.3.1/thumb/v7e-m+fp/hard\libcr_eabihelpers.a(memcpy.o)
                0x60005bd6                __aeabi_memcpy
                0x60005be0                __aeabi_memcpy8
                0x60005be0                __aeabi_memcpy4
 .text.__aeabi_memset_lowlevel
                0x60005c0a       0x32 c:/nxp/mcuxpressoide_11.6.0_8187/ide/plugins/com.nxp.mcuxpresso.tools.win32_11.6.0.202112161359/tools/bin/../lib/gcc/arm-none-eabi/10.3.1/thumb/v7e-m+fp/hard\libcr_eabihelpers.a(memcpy.o)
                0x60005c0a                __aeabi_lowlevel_memset
 .text.__sys_close
                0x60005c3c        0x6 c:/nxp/mcuxpressoide_11.6.0_8187/ide/plugins/com.nxp.mcuxpresso.tools.win32_11.6.0.202112161359/tools/bin/../lib/gcc/arm-none-eabi/10.3.1/../../../../arm-none-eabi/lib/thumb/v7e-m+fp/hard\libcr_nohost_nf.a(__sys_close.o)
                0x60005c3c                __sys_close
 .text.__sys_flen
                0x60005c42        0x6 c:/nxp/mcuxpressoide_11.6.0_8187/ide/plugins/com.nxp.mcuxpresso.tools.win32_11.6.0.202112161359/tools/bin/../lib/gcc/arm-none-eabi/10.3.1/../../../../arm-none-eabi/lib/thumb/v7e-m+fp/hard\libcr_nohost_nf.a(__sys_flen.o)
                0x60005c42                __sys_flen
 .text.__sys_istty
                0x60005c48        0x6 c:/nxp/mcuxpressoide_11.6.0_8187/ide/plugins/com.nxp.mcuxpresso.tools.win32_11.6.0.202112161359/tools/bin/../lib/gcc/arm-none-eabi/10.3.1/../../../../arm-none-eabi/lib/thumb/v7e-m+fp/hard\libcr_nohost_nf.a(__sys_istty.o)
                0x60005c48                __sys_istty
 .text.__sys_remove
                0x60005c4e        0x6 c:/nxp/mcuxpressoide_11.6.0_8187/ide/plugins/com.nxp.mcuxpresso.tools.win32_11.6.0.202112161359/tools/bin/../lib/gcc/arm-none-eabi/10.3.1/../../../../arm-none-eabi/lib/thumb/v7e-m+fp/hard\libcr_nohost_nf.a(__sys_remove.o)
                0x60005c4e                __sys_remove
 .text.__sys_seek
                0x60005c54        0x6 c:/nxp/mcuxpressoide_11.6.0_8187/ide/plugins/com.nxp.mcuxpresso.tools.win32_11.6.0.202112161359/tools/bin/../lib/gcc/arm-none-eabi/10.3.1/../../../../arm-none-eabi/lib/thumb/v7e-m+fp/hard\libcr_nohost_nf.a(__sys_seek.o)
                0x60005c54                __sys_seek
 .text.__sys_tmpnam
                0x60005c5a        0x6 c:/nxp/mcuxpressoide_11.6.0_8187/ide/plugins/com.nxp.mcuxpresso.tools.win32_11.6.0.202112161359/tools/bin/../lib/gcc/arm-none-eabi/10.3.1/../../../../arm-none-eabi/lib/thumb/v7e-m+fp/hard\libcr_nohost_nf.a(__sys_tmpnam.o)
                0x60005c5a                __sys_tmpnam
 .text.__sys_write
                0x60005c60        0x4 c:/nxp/mcuxpressoide_11.6.0_8187/ide/plugins/com.nxp.mcuxpresso.tools.win32_11.6.0.202112161359/tools/bin/../lib/gcc/arm-none-eabi/10.3.1/../../../../arm-none-eabi/lib/thumb/v7e-m+fp/hard\libcr_nohost_nf.a(__sys_write.o)
                0x60005c60                __sys_write
 *(SORT_BY_ALIGNMENT(.rodata) SORT_BY_ALIGNMENT(.rodata.*) SORT_BY_ALIGNMENT(.constdata) SORT_BY_ALIGNMENT(.constdata.*))
 .rodata.__assertion_failed.str1.4
                0x60005c64       0x14 ./utilities/fsl_assert.o
 .rodata.main.str1.4
                0x60005c78        0xd ./source/MIMXRT1052_Project.o
 *fill*         0x60005c85        0x3 ff
 .rodata.CLOCK_InitExternalClk.str1.4
                0x60005c88       0x21 ./drivers/fsl_clock.o
 *fill*         0x60005ca9        0x3 ff
 .rodata.CLOCK_GetPllFreq.str1.4
                0x60005cac       0x6d ./drivers/fsl_clock.o
 *fill*         0x60005d19        0x3 ff
 .rodata.enetRefClkFreq.1
                0x60005d1c       0x10 ./drivers/fsl_clock.o
 .rodata.CLOCK_ControlGate.str1.4
                0x60005d2c       0x20 ./drivers/fsl_lpuart.o
 .rodata.s_lpuartBases
                0x60005d4c       0x24 ./drivers/fsl_lpuart.o
 .rodata.s_lpuartClock
                0x60005d70       0x12 ./drivers/fsl_lpuart.o
 *fill*         0x60005d82        0x2 ff
 .rodata.LPUART_GetInstance.str1.4
                0x60005d84       0x38 ./drivers/fsl_lpuart.o
 .rodata.LPUART_Init.str1.4
                0x60005dbc      0x10a ./drivers/fsl_lpuart.o
 *fill*         0x60005ec6        0x2 ff
 .rodata.LPUART_GetDefaultConfig.str1.4
                0x60005ec8       0x22 ./drivers/fsl_lpuart.o
 *fill*         0x60005eea        0x2 ff
 .rodata.LPUART_WriteBlocking.str1.4
                0x60005eec       0x20 ./drivers/fsl_lpuart.o
 .rodata.s_LpuartAdapterBase
                0x60005f0c       0x24 ./component/uart/fsl_adapter_lpuart.o
 .rodata.HAL_UartInit.str1.4
                0x60005f30      0x105 ./component/uart/fsl_adapter_lpuart.o
 *fill*         0x60006035        0x3 ff
 .rodata.HAL_UartSendBlocking.str1.4
                0x60006038       0x7b ./component/uart/fsl_adapter_lpuart.o
 *fill*         0x600060b3        0x1 ff
 .rodata.BOARD_ConfigMPU.str1.4
                0x600060b4       0x69 ./board/board.o
 *fill*         0x6000611d        0x3 ff
 .rodata.CLOCK_SetMux.str1.4
                0x60006120       0x9a ./board/clock_config.o
 *fill*         0x600061ba        0x2 ff
 .rodata.CLOCK_SetDiv.str1.4
                0x600061bc       0x9a ./board/clock_config.o
 *fill*         0x60006256        0x2 ff
 .rodata.CLOCK_ControlGate.str1.4
                0x60006258       0x89 ./board/clock_config.o
 *fill*         0x600062e1        0x3 ff
 .rodata.armPllConfig_BOARD_BootClockRUN
                0x600062e4        0x8 ./board/clock_config.o
                0x600062e4                armPllConfig_BOARD_BootClockRUN
 .rodata.sysPllConfig_BOARD_BootClockRUN
                0x600062ec       0x14 ./board/clock_config.o
                0x600062ec                sysPllConfig_BOARD_BootClockRUN
 .rodata.CLOCK_ControlGate.str1.4
                0x60006300       0x89 ./board/pin_mux.o
 .rodata.__num_Ciob_streams
                0x60006300        0x4 c:/nxp/mcuxpressoide_11.6.0_8187/ide/plugins/com.nxp.mcuxpresso.tools.win32_11.6.0.202112161359/tools/bin/../lib/gcc/arm-none-eabi/10.3.1/../../../../arm-none-eabi/lib/thumb/v7e-m+fp/hard\libcr_nohost_nf.a(__ciob.o)
                0x60006300                __num_Ciob_streams
 .rodata._initio.str1.1
                0x60006304        0x4 c:/nxp/mcuxpressoide_11.6.0_8187/ide/plugins/com.nxp.mcuxpresso.tools.win32_11.6.0.202112161359/tools/bin/../lib/gcc/arm-none-eabi/10.3.1/../../../../arm-none-eabi/lib/thumb/v7e-m+fp/hard\libcr_c.a(initio.o)
                0x6000638c                . = ALIGN (0x4)
                0x60006308                _etext = .

.glue_7         0x60006308        0x0
 .glue_7        0x60006308        0x0 linker stubs

.glue_7t        0x60006308        0x0
 .glue_7t       0x60006308        0x0 linker stubs

.vfp11_veneer   0x60006308        0x0
 .vfp11_veneer  0x60006308        0x0 linker stubs

.v4_bx          0x60006308        0x0
 .v4_bx         0x60006308        0x0 linker stubs

.iplt           0x60006308        0x0
 .iplt          0x60006308        0x0 ./xip/fsl_flexspi_nor_boot.o

.rel.dyn        0x60006308        0x0
 .rel.iplt      0x60006308        0x0 ./xip/fsl_flexspi_nor_boot.o

.data_RAM2      0x00000000        0x0 load address 0x60006308
 FILL mask 0xff
                [!provide]                PROVIDE (__start_data_RAM2 = .)
                [!provide]                PROVIDE (__start_data_SRAM_ITC = .)
 *(SORT_BY_ALIGNMENT(.ramfunc.$RAM2))
 *(SORT_BY_ALIGNMENT(.ramfunc.$SRAM_ITC))
 *(SORT_BY_ALIGNMENT(.data.$RAM2))
 *(SORT_BY_ALIGNMENT(.data.$SRAM_ITC))
 *(SORT_BY_ALIGNMENT(.data.$RAM2.*))
 *(SORT_BY_ALIGNMENT(.data.$SRAM_ITC.*))
                0x00000000                . = ALIGN (0x4)
                [!provide]                PROVIDE (__end_data_RAM2 = .)
                [!provide]                PROVIDE (__end_data_SRAM_ITC = .)

.data_RAM3      0x20200000        0x0 load address 0x60006308
 FILL mask 0xff
                [!provide]                PROVIDE (__start_data_RAM3 = .)
                [!provide]                PROVIDE (__start_data_SRAM_OC = .)
 *(SORT_BY_ALIGNMENT(.ramfunc.$RAM3))
 *(SORT_BY_ALIGNMENT(.ramfunc.$SRAM_OC))
 *(SORT_BY_ALIGNMENT(.data.$RAM3))
 *(SORT_BY_ALIGNMENT(.data.$SRAM_OC))
 *(SORT_BY_ALIGNMENT(.data.$RAM3.*))
 *(SORT_BY_ALIGNMENT(.data.$SRAM_OC.*))
                0x20200000                . = ALIGN (0x4)
                [!provide]                PROVIDE (__end_data_RAM3 = .)
                [!provide]                PROVIDE (__end_data_SRAM_OC = .)

.data_RAM4      0x80000000        0x0 load address 0x60006308
 FILL mask 0xff
                [!provide]                PROVIDE (__start_data_RAM4 = .)
                [!provide]                PROVIDE (__start_data_BOARD_SDRAM = .)
 *(SORT_BY_ALIGNMENT(.ramfunc.$RAM4))
 *(SORT_BY_ALIGNMENT(.ramfunc.$BOARD_SDRAM))
 *(SORT_BY_ALIGNMENT(.data.$RAM4))
 *(SORT_BY_ALIGNMENT(.data.$BOARD_SDRAM))
 *(SORT_BY_ALIGNMENT(.data.$RAM4.*))
 *(SORT_BY_ALIGNMENT(.data.$BOARD_SDRAM.*))
                0x80000000                . = ALIGN (0x4)
                [!provide]                PROVIDE (__end_data_RAM4 = .)
                [!provide]                PROVIDE (__end_data_BOARD_SDRAM = .)

.data_RAM5      0x81e00000        0x0 load address 0x60006308
 FILL mask 0xff
                [!provide]                PROVIDE (__start_data_RAM5 = .)
                [!provide]                PROVIDE (__start_data_NCACHE_REGION = .)
 *(SORT_BY_ALIGNMENT(.ramfunc.$RAM5))
 *(SORT_BY_ALIGNMENT(.ramfunc.$NCACHE_REGION))
 *(SORT_BY_ALIGNMENT(.data.$RAM5))
 *(SORT_BY_ALIGNMENT(.data.$NCACHE_REGION))
 *(SORT_BY_ALIGNMENT(.data.$RAM5.*))
 *(SORT_BY_ALIGNMENT(.data.$NCACHE_REGION.*))
                0x81e00000                . = ALIGN (0x4)
                [!provide]                PROVIDE (__end_data_RAM5 = .)
                [!provide]                PROVIDE (__end_data_NCACHE_REGION = .)

.uninit_RESERVED
                0x20000000        0x0
                0x20000000                _start_uninit_RESERVED = .
 *(SORT_BY_ALIGNMENT(.bss.$RESERVED*))
                0x20000000                . = ALIGN (0x4)
                0x20000000                _end_uninit_RESERVED = .

.data           0x20000000        0x4 load address 0x60006308
 FILL mask 0xff
                0x20000000                _data = .
                [!provide]                PROVIDE (__start_data_RAM = .)
                [!provide]                PROVIDE (__start_data_SRAM_DTC = .)
 *(SORT_BY_ALIGNMENT(vtable))
 *(SORT_BY_ALIGNMENT(.ramfunc*))
 *(SORT_BY_ALIGNMENT(CodeQuickAccess))
 *(SORT_BY_ALIGNMENT(DataQuickAccess))
 *(SORT_BY_ALIGNMENT(RamFunction))
 *(SORT_BY_ALIGNMENT(.data*))
 .data.SystemCoreClock
                0x20000000        0x4 ./device/system_MIMXRT1052.o
                0x20000000                SystemCoreClock
                0x20000004                . = ALIGN (0x4)
                0x20000004                _edata = .
                [!provide]                PROVIDE (__end_data_RAM = .)
                [!provide]                PROVIDE (__end_data_SRAM_DTC = .)

.igot.plt       0x20000004        0x0 load address 0x6000630c
 .igot.plt      0x20000004        0x0 ./xip/fsl_flexspi_nor_boot.o

.bss_RAM2       0x00000000        0x0
                [!provide]                PROVIDE (__start_bss_RAM2 = .)
                [!provide]                PROVIDE (__start_bss_SRAM_ITC = .)
 *(SORT_BY_ALIGNMENT(.bss.$RAM2))
 *(SORT_BY_ALIGNMENT(.bss.$SRAM_ITC))
 *(SORT_BY_ALIGNMENT(.bss.$RAM2.*))
 *(SORT_BY_ALIGNMENT(.bss.$SRAM_ITC.*))
                0x00000000                . = ALIGN ((. != 0x0)?0x4:0x1)
                [!provide]                PROVIDE (__end_bss_RAM2 = .)
                [!provide]                PROVIDE (__end_bss_SRAM_ITC = .)

.bss_RAM3       0x20200000        0x0
                [!provide]                PROVIDE (__start_bss_RAM3 = .)
                [!provide]                PROVIDE (__start_bss_SRAM_OC = .)
 *(SORT_BY_ALIGNMENT(.bss.$RAM3))
 *(SORT_BY_ALIGNMENT(.bss.$SRAM_OC))
 *(SORT_BY_ALIGNMENT(.bss.$RAM3.*))
 *(SORT_BY_ALIGNMENT(.bss.$SRAM_OC.*))
                0x20200000                . = ALIGN ((. != 0x0)?0x4:0x1)
                [!provide]                PROVIDE (__end_bss_RAM3 = .)
                [!provide]                PROVIDE (__end_bss_SRAM_OC = .)

.bss_RAM4       0x80000000        0x0
                [!provide]                PROVIDE (__start_bss_RAM4 = .)
                [!provide]                PROVIDE (__start_bss_BOARD_SDRAM = .)
 *(SORT_BY_ALIGNMENT(.bss.$RAM4))
 *(SORT_BY_ALIGNMENT(.bss.$BOARD_SDRAM))
 *(SORT_BY_ALIGNMENT(.bss.$RAM4.*))
 *(SORT_BY_ALIGNMENT(.bss.$BOARD_SDRAM.*))
                0x80000000                . = ALIGN ((. != 0x0)?0x4:0x1)
                [!provide]                PROVIDE (__end_bss_RAM4 = .)
                [!provide]                PROVIDE (__end_bss_BOARD_SDRAM = .)

.bss_RAM5       0x81e00000        0x0
                [!provide]                PROVIDE (__start_bss_RAM5 = .)
                [!provide]                PROVIDE (__start_bss_NCACHE_REGION = .)
 *(SORT_BY_ALIGNMENT(.bss.$RAM5))
 *(SORT_BY_ALIGNMENT(.bss.$NCACHE_REGION))
 *(SORT_BY_ALIGNMENT(.bss.$RAM5.*))
 *(SORT_BY_ALIGNMENT(.bss.$NCACHE_REGION.*))
                0x81e00000                . = ALIGN ((. != 0x0)?0x4:0x1)
                [!provide]                PROVIDE (__end_bss_RAM5 = .)
                [!provide]                PROVIDE (__end_bss_NCACHE_REGION = .)

.bss            0x20000004      0x114
                0x20000004                _bss = .
                [!provide]                PROVIDE (__start_bss_RAM = .)
                [!provide]                PROVIDE (__start_bss_SRAM_DTC = .)
 *(SORT_BY_ALIGNMENT(.bss*))
 .bss.s_debugConsoleState
                0x20000004       0x20 ./utilities/fsl_debug_console.o
 .bss.g_serialHandle
                0x20000024        0x4 ./utilities/fsl_debug_console.o
                0x20000024                g_serialHandle
 .bss.i.0       0x20000028        0x4 ./source/MIMXRT1052_Project.o
 .bss.g_xtalFreq
                0x2000002c        0x4 ./drivers/fsl_clock.o
                0x2000002c                g_xtalFreq
 .bss.g_rtcXtalFreq
                0x20000030        0x4 ./drivers/fsl_clock.o
                0x20000030                g_rtcXtalFreq
 .bss.s_lpuartHandle
                0x20000034       0x24 ./drivers/fsl_lpuart.o
                0x20000034                s_lpuartHandle
 .bss.s_lpuartIsr
                0x20000058        0x4 ./drivers/fsl_lpuart.o
                0x20000058                s_lpuartIsr
 .bss.errno     0x2000005c        0x4 c:/nxp/mcuxpressoide_11.6.0_8187/ide/plugins/com.nxp.mcuxpresso.tools.win32_11.6.0.202112161359/tools/bin/../lib/gcc/arm-none-eabi/10.3.1/../../../../arm-none-eabi/lib/thumb/v7e-m+fp/hard\libcr_c.a(errno.o)
                0x2000005c                errno
 .bss.__Ciob    0x20000060       0xb4 c:/nxp/mcuxpressoide_11.6.0_8187/ide/plugins/com.nxp.mcuxpresso.tools.win32_11.6.0.202112161359/tools/bin/../lib/gcc/arm-none-eabi/10.3.1/../../../../arm-none-eabi/lib/thumb/v7e-m+fp/hard\libcr_nohost_nf.a(__ciob.o)
                0x20000060                __Ciob
 .bss.s_debugConsoleReadWaitSemaphore
                0x20000114        0x1 ./utilities/fsl_debug_console.o
 *(SORT_BY_ALIGNMENT(COMMON))
                0x20000118                . = ALIGN (0x4)
 *fill*         0x20000115        0x3 
                0x20000118                _ebss = .
                [!provide]                PROVIDE (__end_bss_RAM = .)
                [!provide]                PROVIDE (__end_bss_SRAM_DTC = .)
                [!provide]                PROVIDE (end = .)

.noinit_RAM2    0x00000000        0x0
                [!provide]                PROVIDE (__start_noinit_RAM2 = .)
                [!provide]                PROVIDE (__start_noinit_SRAM_ITC = .)
 *(SORT_BY_ALIGNMENT(.noinit.$RAM2))
 *(SORT_BY_ALIGNMENT(.noinit.$SRAM_ITC))
 *(SORT_BY_ALIGNMENT(.noinit.$RAM2.*))
 *(SORT_BY_ALIGNMENT(.noinit.$SRAM_ITC.*))
                0x00000000                . = ALIGN (0x4)
                [!provide]                PROVIDE (__end_noinit_RAM2 = .)
                [!provide]                PROVIDE (__end_noinit_SRAM_ITC = .)

.noinit_RAM3    0x20200000        0x0
                [!provide]                PROVIDE (__start_noinit_RAM3 = .)
                [!provide]                PROVIDE (__start_noinit_SRAM_OC = .)
 *(SORT_BY_ALIGNMENT(.noinit.$RAM3))
 *(SORT_BY_ALIGNMENT(.noinit.$SRAM_OC))
 *(SORT_BY_ALIGNMENT(.noinit.$RAM3.*))
 *(SORT_BY_ALIGNMENT(.noinit.$SRAM_OC.*))
                0x20200000                . = ALIGN (0x4)
                [!provide]                PROVIDE (__end_noinit_RAM3 = .)
                [!provide]                PROVIDE (__end_noinit_SRAM_OC = .)

.noinit_RAM4    0x80000000        0x0
                [!provide]                PROVIDE (__start_noinit_RAM4 = .)
                [!provide]                PROVIDE (__start_noinit_BOARD_SDRAM = .)
 *(SORT_BY_ALIGNMENT(.noinit.$RAM4))
 *(SORT_BY_ALIGNMENT(.noinit.$BOARD_SDRAM))
 *(SORT_BY_ALIGNMENT(.noinit.$RAM4.*))
 *(SORT_BY_ALIGNMENT(.noinit.$BOARD_SDRAM.*))
                0x80000000                . = ALIGN (0x4)
                [!provide]                PROVIDE (__end_noinit_RAM4 = .)
                [!provide]                PROVIDE (__end_noinit_BOARD_SDRAM = .)

.noinit_RAM5    0x81e00000        0x0
                [!provide]                PROVIDE (__start_noinit_RAM5 = .)
                [!provide]                PROVIDE (__start_noinit_NCACHE_REGION = .)
 *(SORT_BY_ALIGNMENT(.noinit.$RAM5))
 *(SORT_BY_ALIGNMENT(.noinit.$NCACHE_REGION))
 *(SORT_BY_ALIGNMENT(.noinit.$RAM5.*))
 *(SORT_BY_ALIGNMENT(.noinit.$NCACHE_REGION.*))
                0x81e00000                . = ALIGN (0x4)
                [!provide]                PROVIDE (__end_noinit_RAM5 = .)
                [!provide]                PROVIDE (__end_noinit_NCACHE_REGION = .)

.noinit         0x20000118        0x0
                0x20000118                _noinit = .
                [!provide]                PROVIDE (__start_noinit_RAM = .)
                [!provide]                PROVIDE (__start_noinit_SRAM_DTC = .)
 *(SORT_BY_ALIGNMENT(.noinit*))
                0x20000118                . = ALIGN (0x4)
                0x20000118                _end_noinit = .
                [!provide]                PROVIDE (__end_noinit_RAM = .)
                [!provide]                PROVIDE (__end_noinit_SRAM_DTC = .)

.ARM.extab
 *(SORT_BY_ALIGNMENT(.ARM.extab*) SORT_BY_ALIGNMENT(.gnu.linkonce.armextab.*))

.ARM.exidx      0x6000630c        0x0
                0x6000630c                __exidx_start = .
 *(SORT_BY_ALIGNMENT(.ARM.exidx*) SORT_BY_ALIGNMENT(.gnu.linkonce.armexidx.*))
                0x6000630c                __exidx_end = .
                0x00001000                _HeapSize = 0x1000

.heap           0x20000118     0x1000
                0x20000118                _pvHeapStart = .
                0x20001118                . = (. + _HeapSize)
 *fill*         0x20000118     0x1000 
                0x20001118                . = ALIGN (0x4)
                0x20001118                _pvHeapLimit = .
                0x00001000                _StackSize = 0x1000

.heap2stackfill
                0x20001118     0x1000
                0x20002118                . = (. + _StackSize)
 *fill*         0x20001118     0x1000 

.stack          0x2001f000        0x0
                0x2001f000                _vStackBase = .
                0x2001f000                . = ALIGN (0x4)
                0x20020000                _vStackTop = (. + _StackSize)
                0x60002000                _image_start = LOADADDR (.text)
                0x6000630c                _image_end = (LOADADDR (.data) + SIZEOF (.data))
                0x0000430c                _image_size = (_image_end - _image_start)
OUTPUT(MIMXRT1052_Project.axf elf32-littlearm)
LOAD linker stubs

.debug_info     0x00000000     0xd9d8
 .debug_info    0x00000000      0x83b ./xip/evkbimxrt1050_flexspi_nor_config.o
 .debug_info    0x0000083b      0x463 ./xip/fsl_flexspi_nor_boot.o
 .debug_info    0x00000c9e       0xaa ./utilities/fsl_assert.o
 .debug_info    0x00000d48      0xc42 ./utilities/fsl_debug_console.o
 .debug_info    0x0000198a      0xafc ./utilities/fsl_str.o
 .debug_info    0x00002486      0xdcb ./startup/startup_mimxrt1052.o
 .debug_info    0x00003251       0xaa ./source/MIMXRT1052_Project.o
 .debug_info    0x000032fb       0x3c ./source/semihost_hardfault.o
 .debug_info    0x00003337     0x24da ./drivers/fsl_clock.o
 .debug_info    0x00005811     0x2675 ./drivers/fsl_lpuart.o
 .debug_info    0x00007e86      0xc53 ./device/system_MIMXRT1052.o
 .debug_info    0x00008ad9      0xaeb ./component/uart/fsl_adapter_lpuart.o
 .debug_info    0x000095c4      0xca2 ./component/serial_manager/fsl_component_serial_manager.o
 .debug_info    0x0000a266      0x472 ./component/serial_manager/fsl_component_serial_port_uart.o
 .debug_info    0x0000a6d8      0xfa4 ./board/board.o
 .debug_info    0x0000b67c     0x19c3 ./board/clock_config.o
 .debug_info    0x0000d03f       0x4e ./board/peripherals.o
 .debug_info    0x0000d08d      0x94b ./board/pin_mux.o

.debug_abbrev   0x00000000     0x1f4b
 .debug_abbrev  0x00000000      0x10a ./xip/evkbimxrt1050_flexspi_nor_config.o
 .debug_abbrev  0x0000010a       0xe2 ./xip/fsl_flexspi_nor_boot.o
 .debug_abbrev  0x000001ec       0x66 ./utilities/fsl_assert.o
 .debug_abbrev  0x00000252      0x232 ./utilities/fsl_debug_console.o
 .debug_abbrev  0x00000484      0x24d ./utilities/fsl_str.o
 .debug_abbrev  0x000006d1      0x152 ./startup/startup_mimxrt1052.o
 .debug_abbrev  0x00000823       0x61 ./source/MIMXRT1052_Project.o
 .debug_abbrev  0x00000884       0x31 ./source/semihost_hardfault.o
 .debug_abbrev  0x000008b5      0x33b ./drivers/fsl_clock.o
 .debug_abbrev  0x00000bf0      0x468 ./drivers/fsl_lpuart.o
 .debug_abbrev  0x00001058      0x16e ./device/system_MIMXRT1052.o
 .debug_abbrev  0x000011c6      0x1ad ./component/uart/fsl_adapter_lpuart.o
 .debug_abbrev  0x00001373      0x299 ./component/serial_manager/fsl_component_serial_manager.o
 .debug_abbrev  0x0000160c      0x167 ./component/serial_manager/fsl_component_serial_port_uart.o
 .debug_abbrev  0x00001773      0x296 ./board/board.o
 .debug_abbrev  0x00001a09      0x2b5 ./board/clock_config.o
 .debug_abbrev  0x00001cbe       0x4b ./board/peripherals.o
 .debug_abbrev  0x00001d09      0x242 ./board/pin_mux.o

.debug_aranges  0x00000000      0xd68
 .debug_aranges
                0x00000000       0x18 ./xip/evkbimxrt1050_flexspi_nor_config.o
 .debug_aranges
                0x00000018       0x18 ./xip/fsl_flexspi_nor_boot.o
 .debug_aranges
                0x00000030       0x20 ./utilities/fsl_assert.o
 .debug_aranges
                0x00000050       0xa8 ./utilities/fsl_debug_console.o
 .debug_aranges
                0x000000f8       0xb8 ./utilities/fsl_str.o
 .debug_aranges
                0x000001b0      0x540 ./startup/startup_mimxrt1052.o
 .debug_aranges
                0x000006f0       0x20 ./source/MIMXRT1052_Project.o
 .debug_aranges
                0x00000710       0x20 ./source/semihost_hardfault.o
 .debug_aranges
                0x00000730      0x1b0 ./drivers/fsl_clock.o
 .debug_aranges
                0x000008e0      0x188 ./drivers/fsl_lpuart.o
 .debug_aranges
                0x00000a68       0x30 ./device/system_MIMXRT1052.o
 .debug_aranges
                0x00000a98       0x58 ./component/uart/fsl_adapter_lpuart.o
 .debug_aranges
                0x00000af0       0xa0 ./component/serial_manager/fsl_component_serial_manager.o
 .debug_aranges
                0x00000b90       0x48 ./component/serial_manager/fsl_component_serial_port_uart.o
 .debug_aranges
                0x00000bd8       0x58 ./board/board.o
 .debug_aranges
                0x00000c30       0x80 ./board/clock_config.o
 .debug_aranges
                0x00000cb0       0x28 ./board/peripherals.o
 .debug_aranges
                0x00000cd8       0x90 ./board/pin_mux.o

.debug_macro    0x00000000    0x2c041
 .debug_macro   0x00000000      0x142 ./xip/evkbimxrt1050_flexspi_nor_config.o
 .debug_macro   0x00000142      0xaba ./xip/evkbimxrt1050_flexspi_nor_config.o
 .debug_macro   0x00000bfc       0x10 ./xip/evkbimxrt1050_flexspi_nor_config.o
 .debug_macro   0x00000c0c      0x12e ./xip/evkbimxrt1050_flexspi_nor_config.o
 .debug_macro   0x00000d3a      0x5b3 ./xip/evkbimxrt1050_flexspi_nor_config.o
 .debug_macro   0x000012ed       0x22 ./xip/evkbimxrt1050_flexspi_nor_config.o
 .debug_macro   0x0000130f       0x16 ./xip/evkbimxrt1050_flexspi_nor_config.o
 .debug_macro   0x00001325       0x22 ./xip/evkbimxrt1050_flexspi_nor_config.o
 .debug_macro   0x00001347       0x10 ./xip/evkbimxrt1050_flexspi_nor_config.o
 .debug_macro   0x00001357       0x4d ./xip/evkbimxrt1050_flexspi_nor_config.o
 .debug_macro   0x000013a4       0x1c ./xip/evkbimxrt1050_flexspi_nor_config.o
 .debug_macro   0x000013c0       0x22 ./xip/evkbimxrt1050_flexspi_nor_config.o
 .debug_macro   0x000013e2       0xfb ./xip/evkbimxrt1050_flexspi_nor_config.o
 .debug_macro   0x000014dd     0x1313 ./xip/evkbimxrt1050_flexspi_nor_config.o
 .debug_macro   0x000027f0      0x11f ./xip/evkbimxrt1050_flexspi_nor_config.o
 .debug_macro   0x0000290f       0x22 ./xip/evkbimxrt1050_flexspi_nor_config.o
 .debug_macro   0x00002931       0x22 ./xip/evkbimxrt1050_flexspi_nor_config.o
 .debug_macro   0x00002953    0x24b4c ./xip/evkbimxrt1050_flexspi_nor_config.o
 .debug_macro   0x0002749f      0x841 ./xip/evkbimxrt1050_flexspi_nor_config.o
 .debug_macro   0x00027ce0       0x7a ./xip/evkbimxrt1050_flexspi_nor_config.o
 .debug_macro   0x00027d5a       0xaf ./xip/evkbimxrt1050_flexspi_nor_config.o
 .debug_macro   0x00027e09      0x24e ./xip/evkbimxrt1050_flexspi_nor_config.o
 .debug_macro   0x00028057      0x1a4 ./xip/evkbimxrt1050_flexspi_nor_config.o
 .debug_macro   0x000281fb      0x167 ./xip/fsl_flexspi_nor_boot.o
 .debug_macro   0x00028362      0x130 ./xip/fsl_flexspi_nor_boot.o
 .debug_macro   0x00028492       0x10 ./xip/fsl_flexspi_nor_boot.o
 .debug_macro   0x000284a2      0x16c ./xip/fsl_flexspi_nor_boot.o
 .debug_macro   0x0002860e       0x7c ./xip/fsl_flexspi_nor_boot.o
 .debug_macro   0x0002868a      0x16b ./utilities/fsl_assert.o
 .debug_macro   0x000287f5       0x1c ./utilities/fsl_assert.o
 .debug_macro   0x00028811       0x70 ./utilities/fsl_assert.o
 .debug_macro   0x00028881       0x46 ./utilities/fsl_assert.o
 .debug_macro   0x000288c7       0x16 ./utilities/fsl_assert.o
 .debug_macro   0x000288dd       0x6d ./utilities/fsl_assert.o
 .debug_macro   0x0002894a       0x16 ./utilities/fsl_assert.o
 .debug_macro   0x00028960       0x1c ./utilities/fsl_assert.o
 .debug_macro   0x0002897c       0x1c ./utilities/fsl_assert.o
 .debug_macro   0x00028998      0x1e3 ./utilities/fsl_debug_console.o
 .debug_macro   0x00028b7b       0x16 ./utilities/fsl_debug_console.o
 .debug_macro   0x00028b91       0x10 ./utilities/fsl_debug_console.o
 .debug_macro   0x00028ba1       0x28 ./utilities/fsl_debug_console.o
 .debug_macro   0x00028bc9       0x50 ./utilities/fsl_debug_console.o
 .debug_macro   0x00028c19       0x1c ./utilities/fsl_debug_console.o
 .debug_macro   0x00028c35      0x169 ./utilities/fsl_str.o
 .debug_macro   0x00028d9e       0xc4 ./utilities/fsl_str.o
 .debug_macro   0x00028e62      0x1c7 ./utilities/fsl_str.o
 .debug_macro   0x00029029       0x56 ./utilities/fsl_str.o
 .debug_macro   0x0002907f       0x29 ./startup/startup_mimxrt1052.o
 .debug_macro   0x000290a8      0x1c4 ./source/MIMXRT1052_Project.o
 .debug_macro   0x0002926c       0xd8 ./source/MIMXRT1052_Project.o
 .debug_macro   0x00029344      0x12a ./source/MIMXRT1052_Project.o
 .debug_macro   0x0002946e      0x7f4 ./source/MIMXRT1052_Project.o
 .debug_macro   0x00029c62       0x11 ./source/semihost_hardfault.o
 .debug_macro   0x00029c73      0x12d ./drivers/fsl_clock.o
 .debug_macro   0x00029da0      0x13c ./drivers/fsl_lpuart.o
 .debug_macro   0x00029edc       0x10 ./drivers/fsl_lpuart.o
 .debug_macro   0x00029eec       0xb3 ./device/system_MIMXRT1052.o
 .debug_macro   0x00029f9f      0x155 ./component/uart/fsl_adapter_lpuart.o
 .debug_macro   0x0002a0f4       0x40 ./component/uart/fsl_adapter_lpuart.o
 .debug_macro   0x0002a134      0x1a6 ./component/serial_manager/fsl_component_serial_manager.o
 .debug_macro   0x0002a2da       0x6a ./component/serial_manager/fsl_component_serial_manager.o
 .debug_macro   0x0002a344      0x16a ./component/serial_manager/fsl_component_serial_port_uart.o
 .debug_macro   0x0002a4ae      0x199 ./board/board.o
 .debug_macro   0x0002a647     0x1764 ./board/board.o
 .debug_macro   0x0002bdab      0x13f ./board/clock_config.o
 .debug_macro   0x0002beea       0x1b ./board/peripherals.o
 .debug_macro   0x0002bf05      0x13c ./board/pin_mux.o

.debug_line     0x00000000     0x9132
 .debug_line    0x00000000      0x408 ./xip/evkbimxrt1050_flexspi_nor_config.o
 .debug_line    0x00000408      0x482 ./xip/fsl_flexspi_nor_boot.o
 .debug_line    0x0000088a      0x556 ./utilities/fsl_assert.o
 .debug_line    0x00000de0      0x967 ./utilities/fsl_debug_console.o
 .debug_line    0x00001747      0xb78 ./utilities/fsl_str.o
 .debug_line    0x000022bf      0xf45 ./startup/startup_mimxrt1052.o
 .debug_line    0x00003204      0x694 ./source/MIMXRT1052_Project.o
 .debug_line    0x00003898       0x59 ./source/semihost_hardfault.o
 .debug_line    0x000038f1     0x11c5 ./drivers/fsl_clock.o
 .debug_line    0x00004ab6     0x145b ./drivers/fsl_lpuart.o
 .debug_line    0x00005f11      0x506 ./device/system_MIMXRT1052.o
 .debug_line    0x00006417      0x5b4 ./component/uart/fsl_adapter_lpuart.o
 .debug_line    0x000069cb      0x86f ./component/serial_manager/fsl_component_serial_manager.o
 .debug_line    0x0000723a      0x610 ./component/serial_manager/fsl_component_serial_port_uart.o
 .debug_line    0x0000784a      0x9fa ./board/board.o
 .debug_line    0x00008244      0x818 ./board/clock_config.o
 .debug_line    0x00008a5c       0x71 ./board/peripherals.o
 .debug_line    0x00008acd      0x665 ./board/pin_mux.o

.debug_str      0x00000000   0x15e319
 .debug_str     0x00000000   0x141d2f ./xip/evkbimxrt1050_flexspi_nor_config.o
                             0x141dbe (size before relaxing)
 .debug_str     0x00141d2f     0x15a3 ./xip/fsl_flexspi_nor_boot.o
                             0x1424ea (size before relaxing)
 .debug_str     0x001432d2      0xb65 ./utilities/fsl_assert.o
                             0x141130 (size before relaxing)
 .debug_str     0x00143e37      0xc62 ./utilities/fsl_debug_console.o
                             0x142745 (size before relaxing)
 .debug_str     0x00144a99      0xc0a ./utilities/fsl_str.o
                             0x141466 (size before relaxing)
 .debug_str     0x001456a3      0xdb3 ./startup/startup_mimxrt1052.o
                               0x3c1a (size before relaxing)
 .debug_str     0x00146456     0x356f ./source/MIMXRT1052_Project.o
                             0x145881 (size before relaxing)
 .debug_str     0x001499c5       0x1f ./source/semihost_hardfault.o
                               0x2e22 (size before relaxing)
 .debug_str     0x001499e4     0x1a62 ./drivers/fsl_clock.o
                             0x142a6b (size before relaxing)
 .debug_str     0x0014b446     0x21e1 ./drivers/fsl_lpuart.o
                             0x1433c3 (size before relaxing)
 .debug_str     0x0014d627      0x1f3 ./device/system_MIMXRT1052.o
                             0x13dbd3 (size before relaxing)
 .debug_str     0x0014d81a      0x360 ./component/uart/fsl_adapter_lpuart.o
                             0x1419b9 (size before relaxing)
 .debug_str     0x0014db7a      0x528 ./component/serial_manager/fsl_component_serial_manager.o
                             0x14229a (size before relaxing)
 .debug_str     0x0014e0a2      0x106 ./component/serial_manager/fsl_component_serial_port_uart.o
                             0x1414cd (size before relaxing)
 .debug_str     0x0014e1a8     0xfbb3 ./board/board.o
                             0x152757 (size before relaxing)
 .debug_str     0x0015dd5b      0x425 ./board/clock_config.o
                             0x152760 (size before relaxing)
 .debug_str     0x0015e180       0x47 ./board/peripherals.o
                               0x2e49 (size before relaxing)
 .debug_str     0x0015e1c7      0x152 ./board/pin_mux.o
                             0x153bf1 (size before relaxing)

.comment        0x00000000       0x49
 .comment       0x00000000       0x49 ./xip/evkbimxrt1050_flexspi_nor_config.o
                                 0x4a (size before relaxing)
 .comment       0x00000049       0x4a ./xip/fsl_flexspi_nor_boot.o
 .comment       0x00000049       0x4a ./utilities/fsl_assert.o
 .comment       0x00000049       0x4a ./utilities/fsl_debug_console.o
 .comment       0x00000049       0x4a ./utilities/fsl_str.o
 .comment       0x00000049       0x4a ./startup/startup_mimxrt1052.o
 .comment       0x00000049       0x4a ./source/MIMXRT1052_Project.o
 .comment       0x00000049       0x4a ./source/semihost_hardfault.o
 .comment       0x00000049       0x4a ./drivers/fsl_clock.o
 .comment       0x00000049       0x4a ./drivers/fsl_lpuart.o
 .comment       0x00000049       0x4a ./device/system_MIMXRT1052.o
 .comment       0x00000049       0x4a ./component/uart/fsl_adapter_lpuart.o
 .comment       0x00000049       0x4a ./component/serial_manager/fsl_component_serial_manager.o
 .comment       0x00000049       0x4a ./component/serial_manager/fsl_component_serial_port_uart.o
 .comment       0x00000049       0x4a ./board/board.o
 .comment       0x00000049       0x4a ./board/clock_config.o
 .comment       0x00000049       0x4a ./board/peripherals.o
 .comment       0x00000049       0x4a ./board/pin_mux.o
 .comment       0x00000049       0x4a c:/nxp/mcuxpressoide_11.6.0_8187/ide/plugins/com.nxp.mcuxpresso.tools.win32_11.6.0.202112161359/tools/bin/../lib/gcc/arm-none-eabi/10.3.1/../../../../arm-none-eabi/lib/thumb/v7e-m+fp/hard\libcr_nohost_nf.a(_cr__main.o)
 .comment       0x00000049       0x4a c:/nxp/mcuxpressoide_11.6.0_8187/ide/plugins/com.nxp.mcuxpresso.tools.win32_11.6.0.202112161359/tools/bin/../lib/gcc/arm-none-eabi/10.3.1/../../../../arm-none-eabi/lib/thumb/v7e-m+fp/hard\libcr_c.a(memcpy.o)
 .comment       0x00000049       0x4a c:/nxp/mcuxpressoide_11.6.0_8187/ide/plugins/com.nxp.mcuxpresso.tools.win32_11.6.0.202112161359/tools/bin/../lib/gcc/arm-none-eabi/10.3.1/../../../../arm-none-eabi/lib/thumb/v7e-m+fp/hard\libcr_c.a(memset.o)
 .comment       0x00000049       0x4a c:/nxp/mcuxpressoide_11.6.0_8187/ide/plugins/com.nxp.mcuxpresso.tools.win32_11.6.0.202112161359/tools/bin/../lib/gcc/arm-none-eabi/10.3.1/../../../../arm-none-eabi/lib/thumb/v7e-m+fp/hard\libcr_c.a(alloc.o)
 .comment       0x00000049       0x4a c:/nxp/mcuxpressoide_11.6.0_8187/ide/plugins/com.nxp.mcuxpresso.tools.win32_11.6.0.202112161359/tools/bin/../lib/gcc/arm-none-eabi/10.3.1/../../../../arm-none-eabi/lib/thumb/v7e-m+fp/hard\libcr_c.a(errno.o)
 .comment       0x00000049       0x4a c:/nxp/mcuxpressoide_11.6.0_8187/ide/plugins/com.nxp.mcuxpresso.tools.win32_11.6.0.202112161359/tools/bin/../lib/gcc/arm-none-eabi/10.3.1/../../../../arm-none-eabi/lib/thumb/v7e-m+fp/hard\libcr_c.a(initio.o)
 .comment       0x00000049       0x4a c:/nxp/mcuxpressoide_11.6.0_8187/ide/plugins/com.nxp.mcuxpresso.tools.win32_11.6.0.202112161359/tools/bin/../lib/gcc/arm-none-eabi/10.3.1/../../../../arm-none-eabi/lib/thumb/v7e-m+fp/hard\libcr_c.a(setvbuf.o)
 .comment       0x00000049       0x4a c:/nxp/mcuxpressoide_11.6.0_8187/ide/plugins/com.nxp.mcuxpresso.tools.win32_11.6.0.202112161359/tools/bin/../lib/gcc/arm-none-eabi/10.3.1/../../../../arm-none-eabi/lib/thumb/v7e-m+fp/hard\libcr_c.a(strlen.o)
 .comment       0x00000049       0x4a c:/nxp/mcuxpressoide_11.6.0_8187/ide/plugins/com.nxp.mcuxpresso.tools.win32_11.6.0.202112161359/tools/bin/../lib/gcc/arm-none-eabi/10.3.1/../../../../arm-none-eabi/lib/thumb/v7e-m+fp/hard\libcr_c.a(_deferredlazyseek.o)
 .comment       0x00000049       0x4a c:/nxp/mcuxpressoide_11.6.0_8187/ide/plugins/com.nxp.mcuxpresso.tools.win32_11.6.0.202112161359/tools/bin/../lib/gcc/arm-none-eabi/10.3.1/../../../../arm-none-eabi/lib/thumb/v7e-m+fp/hard\libcr_c.a(_fdopen.o)
 .comment       0x00000049       0x4a c:/nxp/mcuxpressoide_11.6.0_8187/ide/plugins/com.nxp.mcuxpresso.tools.win32_11.6.0.202112161359/tools/bin/../lib/gcc/arm-none-eabi/10.3.1/../../../../arm-none-eabi/lib/thumb/v7e-m+fp/hard\libcr_c.a(_fflush.o)
 .comment       0x00000049       0x4a c:/nxp/mcuxpressoide_11.6.0_8187/ide/plugins/com.nxp.mcuxpresso.tools.win32_11.6.0.202112161359/tools/bin/../lib/gcc/arm-none-eabi/10.3.1/../../../../arm-none-eabi/lib/thumb/v7e-m+fp/hard\libcr_c.a(_writebuf.o)
 .comment       0x00000049       0x4a c:/nxp/mcuxpressoide_11.6.0_8187/ide/plugins/com.nxp.mcuxpresso.tools.win32_11.6.0.202112161359/tools/bin/../lib/gcc/arm-none-eabi/10.3.1/../../../../arm-none-eabi/lib/thumb/v7e-m+fp/hard\libcr_c.a(fclose.o)
 .comment       0x00000049       0x4a c:/nxp/mcuxpressoide_11.6.0_8187/ide/plugins/com.nxp.mcuxpresso.tools.win32_11.6.0.202112161359/tools/bin/../lib/gcc/arm-none-eabi/10.3.1/../../../../arm-none-eabi/lib/thumb/v7e-m+fp/hard\libcr_c.a(fflush.o)
 .comment       0x00000049       0x4a c:/nxp/mcuxpressoide_11.6.0_8187/ide/plugins/com.nxp.mcuxpresso.tools.win32_11.6.0.202112161359/tools/bin/../lib/gcc/arm-none-eabi/10.3.1/../../../../arm-none-eabi/lib/thumb/v7e-m+fp/hard\libcr_c.a(fseek.o)
 .comment       0x00000049       0x4a c:/nxp/mcuxpressoide_11.6.0_8187/ide/plugins/com.nxp.mcuxpresso.tools.win32_11.6.0.202112161359/tools/bin/../lib/gcc/arm-none-eabi/10.3.1/../../../../arm-none-eabi/lib/thumb/v7e-m+fp/hard\libcr_c.a(ftell.o)
 .comment       0x00000049       0x4a c:/nxp/mcuxpressoide_11.6.0_8187/ide/plugins/com.nxp.mcuxpresso.tools.win32_11.6.0.202112161359/tools/bin/../lib/gcc/arm-none-eabi/10.3.1/../../../../arm-none-eabi/lib/thumb/v7e-m+fp/hard\libcr_c.a(remove.o)
 .comment       0x00000049       0x4a c:/nxp/mcuxpressoide_11.6.0_8187/ide/plugins/com.nxp.mcuxpresso.tools.win32_11.6.0.202112161359/tools/bin/../lib/gcc/arm-none-eabi/10.3.1/../../../../arm-none-eabi/lib/thumb/v7e-m+fp/hard\libcr_c.a(_do_fflush.o)
 .comment       0x00000049       0x4a c:/nxp/mcuxpressoide_11.6.0_8187/ide/plugins/com.nxp.mcuxpresso.tools.win32_11.6.0.202112161359/tools/bin/../lib/gcc/arm-none-eabi/10.3.1/../../../../arm-none-eabi/lib/thumb/v7e-m+fp/hard\libcr_nohost_nf.a(__ciob.o)
 .comment       0x00000049       0x4a c:/nxp/mcuxpressoide_11.6.0_8187/ide/plugins/com.nxp.mcuxpresso.tools.win32_11.6.0.202112161359/tools/bin/../lib/gcc/arm-none-eabi/10.3.1/../../../../arm-none-eabi/lib/thumb/v7e-m+fp/hard\libcr_nohost_nf.a(__sys_close.o)
 .comment       0x00000049       0x4a c:/nxp/mcuxpressoide_11.6.0_8187/ide/plugins/com.nxp.mcuxpresso.tools.win32_11.6.0.202112161359/tools/bin/../lib/gcc/arm-none-eabi/10.3.1/../../../../arm-none-eabi/lib/thumb/v7e-m+fp/hard\libcr_nohost_nf.a(__sys_flen.o)
 .comment       0x00000049       0x4a c:/nxp/mcuxpressoide_11.6.0_8187/ide/plugins/com.nxp.mcuxpresso.tools.win32_11.6.0.202112161359/tools/bin/../lib/gcc/arm-none-eabi/10.3.1/../../../../arm-none-eabi/lib/thumb/v7e-m+fp/hard\libcr_nohost_nf.a(__sys_istty.o)
 .comment       0x00000049       0x4a c:/nxp/mcuxpressoide_11.6.0_8187/ide/plugins/com.nxp.mcuxpresso.tools.win32_11.6.0.202112161359/tools/bin/../lib/gcc/arm-none-eabi/10.3.1/../../../../arm-none-eabi/lib/thumb/v7e-m+fp/hard\libcr_nohost_nf.a(__sys_remove.o)
 .comment       0x00000049       0x4a c:/nxp/mcuxpressoide_11.6.0_8187/ide/plugins/com.nxp.mcuxpresso.tools.win32_11.6.0.202112161359/tools/bin/../lib/gcc/arm-none-eabi/10.3.1/../../../../arm-none-eabi/lib/thumb/v7e-m+fp/hard\libcr_nohost_nf.a(__sys_seek.o)
 .comment       0x00000049       0x4a c:/nxp/mcuxpressoide_11.6.0_8187/ide/plugins/com.nxp.mcuxpresso.tools.win32_11.6.0.202112161359/tools/bin/../lib/gcc/arm-none-eabi/10.3.1/../../../../arm-none-eabi/lib/thumb/v7e-m+fp/hard\libcr_nohost_nf.a(__sys_tmpnam.o)
 .comment       0x00000049       0x4a c:/nxp/mcuxpressoide_11.6.0_8187/ide/plugins/com.nxp.mcuxpresso.tools.win32_11.6.0.202112161359/tools/bin/../lib/gcc/arm-none-eabi/10.3.1/../../../../arm-none-eabi/lib/thumb/v7e-m+fp/hard\libcr_nohost_nf.a(__sys_write.o)

.ARM.attributes
                0x00000000       0x32
 .ARM.attributes
                0x00000000       0x34 ./xip/evkbimxrt1050_flexspi_nor_config.o
 .ARM.attributes
                0x00000034       0x34 ./xip/fsl_flexspi_nor_boot.o
 .ARM.attributes
                0x00000068       0x34 ./utilities/fsl_assert.o
 .ARM.attributes
                0x0000009c       0x34 ./utilities/fsl_debug_console.o
 .ARM.attributes
                0x000000d0       0x34 ./utilities/fsl_str.o
 .ARM.attributes
                0x00000104       0x34 ./startup/startup_mimxrt1052.o
 .ARM.attributes
                0x00000138       0x34 ./source/MIMXRT1052_Project.o
 .ARM.attributes
                0x0000016c       0x34 ./source/semihost_hardfault.o
 .ARM.attributes
                0x000001a0       0x34 ./drivers/fsl_clock.o
 .ARM.attributes
                0x000001d4       0x34 ./drivers/fsl_lpuart.o
 .ARM.attributes
                0x00000208       0x34 ./device/system_MIMXRT1052.o
 .ARM.attributes
                0x0000023c       0x34 ./component/uart/fsl_adapter_lpuart.o
 .ARM.attributes
                0x00000270       0x34 ./component/serial_manager/fsl_component_serial_manager.o
 .ARM.attributes
                0x000002a4       0x34 ./component/serial_manager/fsl_component_serial_port_uart.o
 .ARM.attributes
                0x000002d8       0x34 ./board/board.o
 .ARM.attributes
                0x0000030c       0x34 ./board/clock_config.o
 .ARM.attributes
                0x00000340       0x34 ./board/peripherals.o
 .ARM.attributes
                0x00000374       0x34 ./board/pin_mux.o
 .ARM.attributes
                0x000003a8       0x34 c:/nxp/mcuxpressoide_11.6.0_8187/ide/plugins/com.nxp.mcuxpresso.tools.win32_11.6.0.202112161359/tools/bin/../lib/gcc/arm-none-eabi/10.3.1/../../../../arm-none-eabi/lib/thumb/v7e-m+fp/hard\libcr_nohost_nf.a(_cr__main.o)
 .ARM.attributes
                0x000003dc       0x34 c:/nxp/mcuxpressoide_11.6.0_8187/ide/plugins/com.nxp.mcuxpresso.tools.win32_11.6.0.202112161359/tools/bin/../lib/gcc/arm-none-eabi/10.3.1/../../../../arm-none-eabi/lib/thumb/v7e-m+fp/hard\libcr_c.a(memcpy.o)
 .ARM.attributes
                0x00000410       0x34 c:/nxp/mcuxpressoide_11.6.0_8187/ide/plugins/com.nxp.mcuxpresso.tools.win32_11.6.0.202112161359/tools/bin/../lib/gcc/arm-none-eabi/10.3.1/../../../../arm-none-eabi/lib/thumb/v7e-m+fp/hard\libcr_c.a(memset.o)
 .ARM.attributes
                0x00000444       0x34 c:/nxp/mcuxpressoide_11.6.0_8187/ide/plugins/com.nxp.mcuxpresso.tools.win32_11.6.0.202112161359/tools/bin/../lib/gcc/arm-none-eabi/10.3.1/../../../../arm-none-eabi/lib/thumb/v7e-m+fp/hard\libcr_c.a(alloc.o)
 .ARM.attributes
                0x00000478       0x34 c:/nxp/mcuxpressoide_11.6.0_8187/ide/plugins/com.nxp.mcuxpresso.tools.win32_11.6.0.202112161359/tools/bin/../lib/gcc/arm-none-eabi/10.3.1/../../../../arm-none-eabi/lib/thumb/v7e-m+fp/hard\libcr_c.a(errno.o)
 .ARM.attributes
                0x000004ac       0x34 c:/nxp/mcuxpressoide_11.6.0_8187/ide/plugins/com.nxp.mcuxpresso.tools.win32_11.6.0.202112161359/tools/bin/../lib/gcc/arm-none-eabi/10.3.1/../../../../arm-none-eabi/lib/thumb/v7e-m+fp/hard\libcr_c.a(initio.o)
 .ARM.attributes
                0x000004e0       0x34 c:/nxp/mcuxpressoide_11.6.0_8187/ide/plugins/com.nxp.mcuxpresso.tools.win32_11.6.0.202112161359/tools/bin/../lib/gcc/arm-none-eabi/10.3.1/../../../../arm-none-eabi/lib/thumb/v7e-m+fp/hard\libcr_c.a(setvbuf.o)
 .ARM.attributes
                0x00000514       0x34 c:/nxp/mcuxpressoide_11.6.0_8187/ide/plugins/com.nxp.mcuxpresso.tools.win32_11.6.0.202112161359/tools/bin/../lib/gcc/arm-none-eabi/10.3.1/../../../../arm-none-eabi/lib/thumb/v7e-m+fp/hard\libcr_c.a(strlen.o)
 .ARM.attributes
                0x00000548       0x34 c:/nxp/mcuxpressoide_11.6.0_8187/ide/plugins/com.nxp.mcuxpresso.tools.win32_11.6.0.202112161359/tools/bin/../lib/gcc/arm-none-eabi/10.3.1/../../../../arm-none-eabi/lib/thumb/v7e-m+fp/hard\libcr_c.a(_deferredlazyseek.o)
 .ARM.attributes
                0x0000057c       0x34 c:/nxp/mcuxpressoide_11.6.0_8187/ide/plugins/com.nxp.mcuxpresso.tools.win32_11.6.0.202112161359/tools/bin/../lib/gcc/arm-none-eabi/10.3.1/../../../../arm-none-eabi/lib/thumb/v7e-m+fp/hard\libcr_c.a(_fdopen.o)
 .ARM.attributes
                0x000005b0       0x34 c:/nxp/mcuxpressoide_11.6.0_8187/ide/plugins/com.nxp.mcuxpresso.tools.win32_11.6.0.202112161359/tools/bin/../lib/gcc/arm-none-eabi/10.3.1/../../../../arm-none-eabi/lib/thumb/v7e-m+fp/hard\libcr_c.a(_fflush.o)
 .ARM.attributes
                0x000005e4       0x34 c:/nxp/mcuxpressoide_11.6.0_8187/ide/plugins/com.nxp.mcuxpresso.tools.win32_11.6.0.202112161359/tools/bin/../lib/gcc/arm-none-eabi/10.3.1/../../../../arm-none-eabi/lib/thumb/v7e-m+fp/hard\libcr_c.a(_writebuf.o)
 .ARM.attributes
                0x00000618       0x34 c:/nxp/mcuxpressoide_11.6.0_8187/ide/plugins/com.nxp.mcuxpresso.tools.win32_11.6.0.202112161359/tools/bin/../lib/gcc/arm-none-eabi/10.3.1/../../../../arm-none-eabi/lib/thumb/v7e-m+fp/hard\libcr_c.a(fclose.o)
 .ARM.attributes
                0x0000064c       0x34 c:/nxp/mcuxpressoide_11.6.0_8187/ide/plugins/com.nxp.mcuxpresso.tools.win32_11.6.0.202112161359/tools/bin/../lib/gcc/arm-none-eabi/10.3.1/../../../../arm-none-eabi/lib/thumb/v7e-m+fp/hard\libcr_c.a(fflush.o)
 .ARM.attributes
                0x00000680       0x34 c:/nxp/mcuxpressoide_11.6.0_8187/ide/plugins/com.nxp.mcuxpresso.tools.win32_11.6.0.202112161359/tools/bin/../lib/gcc/arm-none-eabi/10.3.1/../../../../arm-none-eabi/lib/thumb/v7e-m+fp/hard\libcr_c.a(fseek.o)
 .ARM.attributes
                0x000006b4       0x34 c:/nxp/mcuxpressoide_11.6.0_8187/ide/plugins/com.nxp.mcuxpresso.tools.win32_11.6.0.202112161359/tools/bin/../lib/gcc/arm-none-eabi/10.3.1/../../../../arm-none-eabi/lib/thumb/v7e-m+fp/hard\libcr_c.a(ftell.o)
 .ARM.attributes
                0x000006e8       0x34 c:/nxp/mcuxpressoide_11.6.0_8187/ide/plugins/com.nxp.mcuxpresso.tools.win32_11.6.0.202112161359/tools/bin/../lib/gcc/arm-none-eabi/10.3.1/../../../../arm-none-eabi/lib/thumb/v7e-m+fp/hard\libcr_c.a(remove.o)
 .ARM.attributes
                0x0000071c       0x34 c:/nxp/mcuxpressoide_11.6.0_8187/ide/plugins/com.nxp.mcuxpresso.tools.win32_11.6.0.202112161359/tools/bin/../lib/gcc/arm-none-eabi/10.3.1/../../../../arm-none-eabi/lib/thumb/v7e-m+fp/hard\libcr_c.a(_do_fflush.o)
 .ARM.attributes
                0x00000750       0x20 c:/nxp/mcuxpressoide_11.6.0_8187/ide/plugins/com.nxp.mcuxpresso.tools.win32_11.6.0.202112161359/tools/bin/../lib/gcc/arm-none-eabi/10.3.1/thumb/v7e-m+fp/hard\libcr_eabihelpers.a(division_64.o)
 .ARM.attributes
                0x00000770       0x20 c:/nxp/mcuxpressoide_11.6.0_8187/ide/plugins/com.nxp.mcuxpresso.tools.win32_11.6.0.202112161359/tools/bin/../lib/gcc/arm-none-eabi/10.3.1/thumb/v7e-m+fp/hard\libcr_eabihelpers.a(division_idiv0.o)
 .ARM.attributes
                0x00000790       0x20 c:/nxp/mcuxpressoide_11.6.0_8187/ide/plugins/com.nxp.mcuxpresso.tools.win32_11.6.0.202112161359/tools/bin/../lib/gcc/arm-none-eabi/10.3.1/thumb/v7e-m+fp/hard\libcr_eabihelpers.a(memcpy.o)
 .ARM.attributes
                0x000007b0       0x34 c:/nxp/mcuxpressoide_11.6.0_8187/ide/plugins/com.nxp.mcuxpresso.tools.win32_11.6.0.202112161359/tools/bin/../lib/gcc/arm-none-eabi/10.3.1/../../../../arm-none-eabi/lib/thumb/v7e-m+fp/hard\libcr_nohost_nf.a(__ciob.o)
 .ARM.attributes
                0x000007e4       0x34 c:/nxp/mcuxpressoide_11.6.0_8187/ide/plugins/com.nxp.mcuxpresso.tools.win32_11.6.0.202112161359/tools/bin/../lib/gcc/arm-none-eabi/10.3.1/../../../../arm-none-eabi/lib/thumb/v7e-m+fp/hard\libcr_nohost_nf.a(__sys_close.o)
 .ARM.attributes
                0x00000818       0x34 c:/nxp/mcuxpressoide_11.6.0_8187/ide/plugins/com.nxp.mcuxpresso.tools.win32_11.6.0.202112161359/tools/bin/../lib/gcc/arm-none-eabi/10.3.1/../../../../arm-none-eabi/lib/thumb/v7e-m+fp/hard\libcr_nohost_nf.a(__sys_flen.o)
 .ARM.attributes
                0x0000084c       0x34 c:/nxp/mcuxpressoide_11.6.0_8187/ide/plugins/com.nxp.mcuxpresso.tools.win32_11.6.0.202112161359/tools/bin/../lib/gcc/arm-none-eabi/10.3.1/../../../../arm-none-eabi/lib/thumb/v7e-m+fp/hard\libcr_nohost_nf.a(__sys_istty.o)
 .ARM.attributes
                0x00000880       0x34 c:/nxp/mcuxpressoide_11.6.0_8187/ide/plugins/com.nxp.mcuxpresso.tools.win32_11.6.0.202112161359/tools/bin/../lib/gcc/arm-none-eabi/10.3.1/../../../../arm-none-eabi/lib/thumb/v7e-m+fp/hard\libcr_nohost_nf.a(__sys_remove.o)
 .ARM.attributes
                0x000008b4       0x34 c:/nxp/mcuxpressoide_11.6.0_8187/ide/plugins/com.nxp.mcuxpresso.tools.win32_11.6.0.202112161359/tools/bin/../lib/gcc/arm-none-eabi/10.3.1/../../../../arm-none-eabi/lib/thumb/v7e-m+fp/hard\libcr_nohost_nf.a(__sys_seek.o)
 .ARM.attributes
                0x000008e8       0x34 c:/nxp/mcuxpressoide_11.6.0_8187/ide/plugins/com.nxp.mcuxpresso.tools.win32_11.6.0.202112161359/tools/bin/../lib/gcc/arm-none-eabi/10.3.1/../../../../arm-none-eabi/lib/thumb/v7e-m+fp/hard\libcr_nohost_nf.a(__sys_tmpnam.o)
 .ARM.attributes
                0x0000091c       0x34 c:/nxp/mcuxpressoide_11.6.0_8187/ide/plugins/com.nxp.mcuxpresso.tools.win32_11.6.0.202112161359/tools/bin/../lib/gcc/arm-none-eabi/10.3.1/../../../../arm-none-eabi/lib/thumb/v7e-m+fp/hard\libcr_nohost_nf.a(__sys_write.o)

.debug_ranges   0x00000000      0xc68
 .debug_ranges  0x00000000       0x10 ./utilities/fsl_assert.o
 .debug_ranges  0x00000010       0x98 ./utilities/fsl_debug_console.o
 .debug_ranges  0x000000a8       0xd8 ./utilities/fsl_str.o
 .debug_ranges  0x00000180      0x530 ./startup/startup_mimxrt1052.o
 .debug_ranges  0x000006b0       0x10 ./source/MIMXRT1052_Project.o
 .debug_ranges  0x000006c0       0x10 ./source/semihost_hardfault.o
 .debug_ranges  0x000006d0      0x1a0 ./drivers/fsl_clock.o
 .debug_ranges  0x00000870      0x178 ./drivers/fsl_lpuart.o
 .debug_ranges  0x000009e8       0x20 ./device/system_MIMXRT1052.o
 .debug_ranges  0x00000a08       0x48 ./component/uart/fsl_adapter_lpuart.o
 .debug_ranges  0x00000a50       0x90 ./component/serial_manager/fsl_component_serial_manager.o
 .debug_ranges  0x00000ae0       0x38 ./component/serial_manager/fsl_component_serial_port_uart.o
 .debug_ranges  0x00000b18       0x48 ./board/board.o
 .debug_ranges  0x00000b60       0x70 ./board/clock_config.o
 .debug_ranges  0x00000bd0       0x18 ./board/peripherals.o
 .debug_ranges  0x00000be8       0x80 ./board/pin_mux.o

.debug_frame    0x00000000     0x2e44
 .debug_frame   0x00000000       0x30 ./utilities/fsl_assert.o
 .debug_frame   0x00000030      0x2d4 ./utilities/fsl_debug_console.o
 .debug_frame   0x00000304      0x32c ./utilities/fsl_str.o
 .debug_frame   0x00000630      0xf2c ./startup/startup_mimxrt1052.o
 .debug_frame   0x0000155c       0x2c ./source/MIMXRT1052_Project.o
 .debug_frame   0x00001588       0x20 ./source/semihost_hardfault.o
 .debug_frame   0x000015a8      0x754 ./drivers/fsl_clock.o
 .debug_frame   0x00001cfc      0x67c ./drivers/fsl_lpuart.o
 .debug_frame   0x00002378       0x7c ./device/system_MIMXRT1052.o
 .debug_frame   0x000023f4      0x138 ./component/uart/fsl_adapter_lpuart.o
 .debug_frame   0x0000252c      0x280 ./component/serial_manager/fsl_component_serial_manager.o
 .debug_frame   0x000027ac       0xe8 ./component/serial_manager/fsl_component_serial_port_uart.o
 .debug_frame   0x00002894      0x13c ./board/board.o
 .debug_frame   0x000029d0      0x1fc ./board/clock_config.o
 .debug_frame   0x00002bcc       0x4c ./board/peripherals.o
 .debug_frame   0x00002c18      0x22c ./board/pin_mux.o

Cross Reference Table

Symbol                                            File
ACMP1_DriverIRQHandler                            ./startup/startup_mimxrt1052.o
ACMP1_IRQHandler                                  ./startup/startup_mimxrt1052.o
ACMP2_DriverIRQHandler                            ./startup/startup_mimxrt1052.o
ACMP2_IRQHandler                                  ./startup/startup_mimxrt1052.o
ACMP3_DriverIRQHandler                            ./startup/startup_mimxrt1052.o
ACMP3_IRQHandler                                  ./startup/startup_mimxrt1052.o
ACMP4_DriverIRQHandler                            ./startup/startup_mimxrt1052.o
ACMP4_IRQHandler                                  ./startup/startup_mimxrt1052.o
ADC1_DriverIRQHandler                             ./startup/startup_mimxrt1052.o
ADC1_IRQHandler                                   ./startup/startup_mimxrt1052.o
ADC2_DriverIRQHandler                             ./startup/startup_mimxrt1052.o
ADC2_IRQHandler                                   ./startup/startup_mimxrt1052.o
ADC_ETC_ERROR_IRQ_DriverIRQHandler                ./startup/startup_mimxrt1052.o
ADC_ETC_ERROR_IRQ_IRQHandler                      ./startup/startup_mimxrt1052.o
ADC_ETC_IRQ0_DriverIRQHandler                     ./startup/startup_mimxrt1052.o
ADC_ETC_IRQ0_IRQHandler                           ./startup/startup_mimxrt1052.o
ADC_ETC_IRQ1_DriverIRQHandler                     ./startup/startup_mimxrt1052.o
ADC_ETC_IRQ1_IRQHandler                           ./startup/startup_mimxrt1052.o
ADC_ETC_IRQ2_DriverIRQHandler                     ./startup/startup_mimxrt1052.o
ADC_ETC_IRQ2_IRQHandler                           ./startup/startup_mimxrt1052.o
BEE_DriverIRQHandler                              ./startup/startup_mimxrt1052.o
BEE_IRQHandler                                    ./startup/startup_mimxrt1052.o
BOARD_BootClockRUN                                ./board/clock_config.o
BOARD_ConfigMPU                                   ./board/board.o
                                                  ./source/MIMXRT1052_Project.o
BOARD_DebugConsoleSrcFreq                         ./board/board.o
BOARD_InitBootClocks                              ./board/clock_config.o
                                                  ./source/MIMXRT1052_Project.o
BOARD_InitBootPeripherals                         ./board/peripherals.o
                                                  ./source/MIMXRT1052_Project.o
BOARD_InitBootPins                                ./board/pin_mux.o
                                                  ./source/MIMXRT1052_Project.o
BOARD_InitCANPins                                 ./board/pin_mux.o
BOARD_InitCSIPins                                 ./board/pin_mux.o
BOARD_InitDEBUG_UARTPins                          ./board/pin_mux.o
BOARD_InitDebugConsole                            ./board/board.o
                                                  ./source/MIMXRT1052_Project.o
BOARD_InitENETPins                                ./board/pin_mux.o
BOARD_InitHyperFlashPins                          ./board/pin_mux.o
BOARD_InitLCDPins                                 ./board/pin_mux.o
BOARD_InitPeripherals                             ./board/peripherals.o
BOARD_InitPins                                    ./board/pin_mux.o
BOARD_InitSDRAMPins                               ./board/pin_mux.o
BOARD_InitUSDHCPins                               ./board/pin_mux.o
BusFault_Handler                                  ./startup/startup_mimxrt1052.o
CAN1_DriverIRQHandler                             ./startup/startup_mimxrt1052.o
CAN1_IRQHandler                                   ./startup/startup_mimxrt1052.o
CAN2_DriverIRQHandler                             ./startup/startup_mimxrt1052.o
CAN2_IRQHandler                                   ./startup/startup_mimxrt1052.o
CCM_1_DriverIRQHandler                            ./startup/startup_mimxrt1052.o
CCM_1_IRQHandler                                  ./startup/startup_mimxrt1052.o
CCM_2_DriverIRQHandler                            ./startup/startup_mimxrt1052.o
CCM_2_IRQHandler                                  ./startup/startup_mimxrt1052.o
CLOCK_DeinitArmPll                                ./drivers/fsl_clock.o
CLOCK_DeinitAudioPll                              ./drivers/fsl_clock.o
                                                  ./board/clock_config.o
CLOCK_DeinitEnetPll                               ./drivers/fsl_clock.o
                                                  ./board/clock_config.o
CLOCK_DeinitExternalClk                           ./drivers/fsl_clock.o
CLOCK_DeinitRcOsc24M                              ./drivers/fsl_clock.o
CLOCK_DeinitSysPfd                                ./drivers/fsl_clock.o
CLOCK_DeinitSysPll                                ./drivers/fsl_clock.o
CLOCK_DeinitUsb1Pfd                               ./drivers/fsl_clock.o
CLOCK_DeinitUsb1Pll                               ./drivers/fsl_clock.o
CLOCK_DeinitUsb2Pll                               ./drivers/fsl_clock.o
                                                  ./board/clock_config.o
CLOCK_DeinitVideoPll                              ./drivers/fsl_clock.o
CLOCK_DisableUsbhs0PhyPllClock                    ./drivers/fsl_clock.o
CLOCK_DisableUsbhs1PhyPllClock                    ./drivers/fsl_clock.o
CLOCK_EnableUsbhs0Clock                           ./drivers/fsl_clock.o
CLOCK_EnableUsbhs0PhyPllClock                     ./drivers/fsl_clock.o
CLOCK_EnableUsbhs1Clock                           ./drivers/fsl_clock.o
CLOCK_EnableUsbhs1PhyPllClock                     ./drivers/fsl_clock.o
CLOCK_GetAhbFreq                                  ./drivers/fsl_clock.o
CLOCK_GetClockOutCLKO1Freq                        ./drivers/fsl_clock.o
CLOCK_GetClockOutClkO2Freq                        ./drivers/fsl_clock.o
CLOCK_GetClockRootFreq                            ./drivers/fsl_clock.o
CLOCK_GetFreq                                     ./drivers/fsl_clock.o
CLOCK_GetIpgFreq                                  ./drivers/fsl_clock.o
CLOCK_GetPerClkFreq                               ./drivers/fsl_clock.o
CLOCK_GetPllFreq                                  ./drivers/fsl_clock.o
                                                  ./board/board.o
CLOCK_GetSemcFreq                                 ./drivers/fsl_clock.o
CLOCK_GetSysPfdFreq                               ./drivers/fsl_clock.o
CLOCK_GetUsb1PfdFreq                              ./drivers/fsl_clock.o
CLOCK_InitArmPll                                  ./drivers/fsl_clock.o
                                                  ./board/clock_config.o
CLOCK_InitAudioPll                                ./drivers/fsl_clock.o
CLOCK_InitEnetPll                                 ./drivers/fsl_clock.o
CLOCK_InitExternalClk                             ./drivers/fsl_clock.o
                                                  ./board/clock_config.o
CLOCK_InitRcOsc24M                                ./drivers/fsl_clock.o
                                                  ./board/clock_config.o
CLOCK_InitSysPfd                                  ./drivers/fsl_clock.o
                                                  ./board/clock_config.o
CLOCK_InitSysPll                                  ./drivers/fsl_clock.o
                                                  ./board/clock_config.o
CLOCK_InitUsb1Pfd                                 ./drivers/fsl_clock.o
CLOCK_InitUsb1Pll                                 ./drivers/fsl_clock.o
CLOCK_InitUsb2Pll                                 ./drivers/fsl_clock.o
CLOCK_InitVideoPll                                ./drivers/fsl_clock.o
CLOCK_IsSysPfdEnabled                             ./drivers/fsl_clock.o
CLOCK_IsUsb1PfdEnabled                            ./drivers/fsl_clock.o
CLOCK_SetClockOutput1                             ./drivers/fsl_clock.o
CLOCK_SetClockOutput2                             ./drivers/fsl_clock.o
CLOCK_SwitchOsc                                   ./drivers/fsl_clock.o
                                                  ./board/clock_config.o
CORE_DriverIRQHandler                             ./startup/startup_mimxrt1052.o
CORE_IRQHandler                                   ./startup/startup_mimxrt1052.o
CSI_DriverIRQHandler                              ./startup/startup_mimxrt1052.o
CSI_IRQHandler                                    ./startup/startup_mimxrt1052.o
CSU_DriverIRQHandler                              ./startup/startup_mimxrt1052.o
CSU_IRQHandler                                    ./startup/startup_mimxrt1052.o
CTI0_ERROR_DriverIRQHandler                       ./startup/startup_mimxrt1052.o
CTI0_ERROR_IRQHandler                             ./startup/startup_mimxrt1052.o
CTI1_ERROR_DriverIRQHandler                       ./startup/startup_mimxrt1052.o
CTI1_ERROR_IRQHandler                             ./startup/startup_mimxrt1052.o
DCDC_DriverIRQHandler                             ./startup/startup_mimxrt1052.o
DCDC_IRQHandler                                   ./startup/startup_mimxrt1052.o
DCP_DriverIRQHandler                              ./startup/startup_mimxrt1052.o
DCP_IRQHandler                                    ./startup/startup_mimxrt1052.o
DCP_VMI_DriverIRQHandler                          ./startup/startup_mimxrt1052.o
DCP_VMI_IRQHandler                                ./startup/startup_mimxrt1052.o
DMA0_DMA16_DriverIRQHandler                       ./startup/startup_mimxrt1052.o
DMA0_DMA16_IRQHandler                             ./startup/startup_mimxrt1052.o
DMA10_DMA26_DriverIRQHandler                      ./startup/startup_mimxrt1052.o
DMA10_DMA26_IRQHandler                            ./startup/startup_mimxrt1052.o
DMA11_DMA27_DriverIRQHandler                      ./startup/startup_mimxrt1052.o
DMA11_DMA27_IRQHandler                            ./startup/startup_mimxrt1052.o
DMA12_DMA28_DriverIRQHandler                      ./startup/startup_mimxrt1052.o
DMA12_DMA28_IRQHandler                            ./startup/startup_mimxrt1052.o
DMA13_DMA29_DriverIRQHandler                      ./startup/startup_mimxrt1052.o
DMA13_DMA29_IRQHandler                            ./startup/startup_mimxrt1052.o
DMA14_DMA30_DriverIRQHandler                      ./startup/startup_mimxrt1052.o
DMA14_DMA30_IRQHandler                            ./startup/startup_mimxrt1052.o
DMA15_DMA31_DriverIRQHandler                      ./startup/startup_mimxrt1052.o
DMA15_DMA31_IRQHandler                            ./startup/startup_mimxrt1052.o
DMA1_DMA17_DriverIRQHandler                       ./startup/startup_mimxrt1052.o
DMA1_DMA17_IRQHandler                             ./startup/startup_mimxrt1052.o
DMA2_DMA18_DriverIRQHandler                       ./startup/startup_mimxrt1052.o
DMA2_DMA18_IRQHandler                             ./startup/startup_mimxrt1052.o
DMA3_DMA19_DriverIRQHandler                       ./startup/startup_mimxrt1052.o
DMA3_DMA19_IRQHandler                             ./startup/startup_mimxrt1052.o
DMA4_DMA20_DriverIRQHandler                       ./startup/startup_mimxrt1052.o
DMA4_DMA20_IRQHandler                             ./startup/startup_mimxrt1052.o
DMA5_DMA21_DriverIRQHandler                       ./startup/startup_mimxrt1052.o
DMA5_DMA21_IRQHandler                             ./startup/startup_mimxrt1052.o
DMA6_DMA22_DriverIRQHandler                       ./startup/startup_mimxrt1052.o
DMA6_DMA22_IRQHandler                             ./startup/startup_mimxrt1052.o
DMA7_DMA23_DriverIRQHandler                       ./startup/startup_mimxrt1052.o
DMA7_DMA23_IRQHandler                             ./startup/startup_mimxrt1052.o
DMA8_DMA24_DriverIRQHandler                       ./startup/startup_mimxrt1052.o
DMA8_DMA24_IRQHandler                             ./startup/startup_mimxrt1052.o
DMA9_DMA25_DriverIRQHandler                       ./startup/startup_mimxrt1052.o
DMA9_DMA25_IRQHandler                             ./startup/startup_mimxrt1052.o
DMA_ERROR_DriverIRQHandler                        ./startup/startup_mimxrt1052.o
DMA_ERROR_IRQHandler                              ./startup/startup_mimxrt1052.o
DbgConsole_BlockingPrintf                         ./utilities/fsl_debug_console.o
DbgConsole_BlockingVprintf                        ./utilities/fsl_debug_console.o
DbgConsole_Deinit                                 ./utilities/fsl_debug_console.o
DbgConsole_EnterLowpower                          ./utilities/fsl_debug_console.o
DbgConsole_ExitLowpower                           ./utilities/fsl_debug_console.o
DbgConsole_Flush                                  ./utilities/fsl_debug_console.o
DbgConsole_Getchar                                ./utilities/fsl_debug_console.o
DbgConsole_Init                                   ./utilities/fsl_debug_console.o
                                                  ./board/board.o
DbgConsole_Printf                                 ./utilities/fsl_debug_console.o
                                                  ./source/MIMXRT1052_Project.o
                                                  ./utilities/fsl_assert.o
DbgConsole_Putchar                                ./utilities/fsl_debug_console.o
DbgConsole_ReadCharacter                          ./utilities/fsl_debug_console.o
DbgConsole_ReadLine                               ./utilities/fsl_debug_console.o
DbgConsole_ReadOneCharacter                       ./utilities/fsl_debug_console.o
DbgConsole_Scanf                                  ./utilities/fsl_debug_console.o
DbgConsole_SendData                               ./utilities/fsl_debug_console.o
DbgConsole_SendDataReliable                       ./utilities/fsl_debug_console.o
DbgConsole_Vprintf                                ./utilities/fsl_debug_console.o
DebugMon_Handler                                  ./startup/startup_mimxrt1052.o
ENC1_DriverIRQHandler                             ./startup/startup_mimxrt1052.o
ENC1_IRQHandler                                   ./startup/startup_mimxrt1052.o
ENC2_DriverIRQHandler                             ./startup/startup_mimxrt1052.o
ENC2_IRQHandler                                   ./startup/startup_mimxrt1052.o
ENC3_DriverIRQHandler                             ./startup/startup_mimxrt1052.o
ENC3_IRQHandler                                   ./startup/startup_mimxrt1052.o
ENC4_DriverIRQHandler                             ./startup/startup_mimxrt1052.o
ENC4_IRQHandler                                   ./startup/startup_mimxrt1052.o
ENET_1588_Timer_DriverIRQHandler                  ./startup/startup_mimxrt1052.o
ENET_1588_Timer_IRQHandler                        ./startup/startup_mimxrt1052.o
ENET_DriverIRQHandler                             ./startup/startup_mimxrt1052.o
ENET_IRQHandler                                   ./startup/startup_mimxrt1052.o
EWM_DriverIRQHandler                              ./startup/startup_mimxrt1052.o
EWM_IRQHandler                                    ./startup/startup_mimxrt1052.o
FLEXIO1_DriverIRQHandler                          ./startup/startup_mimxrt1052.o
FLEXIO1_IRQHandler                                ./startup/startup_mimxrt1052.o
FLEXIO2_DriverIRQHandler                          ./startup/startup_mimxrt1052.o
FLEXIO2_IRQHandler                                ./startup/startup_mimxrt1052.o
FLEXRAM_DriverIRQHandler                          ./startup/startup_mimxrt1052.o
FLEXRAM_IRQHandler                                ./startup/startup_mimxrt1052.o
FLEXSPI_DriverIRQHandler                          ./startup/startup_mimxrt1052.o
FLEXSPI_IRQHandler                                ./startup/startup_mimxrt1052.o
GPC_DriverIRQHandler                              ./startup/startup_mimxrt1052.o
GPC_IRQHandler                                    ./startup/startup_mimxrt1052.o
GPIO1_Combined_0_15_DriverIRQHandler              ./startup/startup_mimxrt1052.o
GPIO1_Combined_0_15_IRQHandler                    ./startup/startup_mimxrt1052.o
GPIO1_Combined_16_31_DriverIRQHandler             ./startup/startup_mimxrt1052.o
GPIO1_Combined_16_31_IRQHandler                   ./startup/startup_mimxrt1052.o
GPIO1_INT0_DriverIRQHandler                       ./startup/startup_mimxrt1052.o
GPIO1_INT0_IRQHandler                             ./startup/startup_mimxrt1052.o
GPIO1_INT1_DriverIRQHandler                       ./startup/startup_mimxrt1052.o
GPIO1_INT1_IRQHandler                             ./startup/startup_mimxrt1052.o
GPIO1_INT2_DriverIRQHandler                       ./startup/startup_mimxrt1052.o
GPIO1_INT2_IRQHandler                             ./startup/startup_mimxrt1052.o
GPIO1_INT3_DriverIRQHandler                       ./startup/startup_mimxrt1052.o
GPIO1_INT3_IRQHandler                             ./startup/startup_mimxrt1052.o
GPIO1_INT4_DriverIRQHandler                       ./startup/startup_mimxrt1052.o
GPIO1_INT4_IRQHandler                             ./startup/startup_mimxrt1052.o
GPIO1_INT5_DriverIRQHandler                       ./startup/startup_mimxrt1052.o
GPIO1_INT5_IRQHandler                             ./startup/startup_mimxrt1052.o
GPIO1_INT6_DriverIRQHandler                       ./startup/startup_mimxrt1052.o
GPIO1_INT6_IRQHandler                             ./startup/startup_mimxrt1052.o
GPIO1_INT7_DriverIRQHandler                       ./startup/startup_mimxrt1052.o
GPIO1_INT7_IRQHandler                             ./startup/startup_mimxrt1052.o
GPIO2_Combined_0_15_DriverIRQHandler              ./startup/startup_mimxrt1052.o
GPIO2_Combined_0_15_IRQHandler                    ./startup/startup_mimxrt1052.o
GPIO2_Combined_16_31_DriverIRQHandler             ./startup/startup_mimxrt1052.o
GPIO2_Combined_16_31_IRQHandler                   ./startup/startup_mimxrt1052.o
GPIO3_Combined_0_15_DriverIRQHandler              ./startup/startup_mimxrt1052.o
GPIO3_Combined_0_15_IRQHandler                    ./startup/startup_mimxrt1052.o
GPIO3_Combined_16_31_DriverIRQHandler             ./startup/startup_mimxrt1052.o
GPIO3_Combined_16_31_IRQHandler                   ./startup/startup_mimxrt1052.o
GPIO4_Combined_0_15_DriverIRQHandler              ./startup/startup_mimxrt1052.o
GPIO4_Combined_0_15_IRQHandler                    ./startup/startup_mimxrt1052.o
GPIO4_Combined_16_31_DriverIRQHandler             ./startup/startup_mimxrt1052.o
GPIO4_Combined_16_31_IRQHandler                   ./startup/startup_mimxrt1052.o
GPIO5_Combined_0_15_DriverIRQHandler              ./startup/startup_mimxrt1052.o
GPIO5_Combined_0_15_IRQHandler                    ./startup/startup_mimxrt1052.o
GPIO5_Combined_16_31_DriverIRQHandler             ./startup/startup_mimxrt1052.o
GPIO5_Combined_16_31_IRQHandler                   ./startup/startup_mimxrt1052.o
GPIO_PinInit                                      ./drivers/fsl_gpio.o
GPIO_PinSetInterruptConfig                        ./drivers/fsl_gpio.o
GPIO_PinWrite                                     ./drivers/fsl_gpio.o
GPR_IRQ_DriverIRQHandler                          ./startup/startup_mimxrt1052.o
GPR_IRQ_IRQHandler                                ./startup/startup_mimxrt1052.o
GPT1_DriverIRQHandler                             ./startup/startup_mimxrt1052.o
GPT1_IRQHandler                                   ./startup/startup_mimxrt1052.o
GPT2_DriverIRQHandler                             ./startup/startup_mimxrt1052.o
GPT2_IRQHandler                                   ./startup/startup_mimxrt1052.o
HAL_UartDeinit                                    ./component/uart/fsl_adapter_lpuart.o
                                                  ./component/serial_manager/fsl_component_serial_port_uart.o
HAL_UartEnterLowpower                             ./component/uart/fsl_adapter_lpuart.o
                                                  ./component/serial_manager/fsl_component_serial_port_uart.o
HAL_UartExitLowpower                              ./component/uart/fsl_adapter_lpuart.o
                                                  ./component/serial_manager/fsl_component_serial_port_uart.o
HAL_UartInit                                      ./component/uart/fsl_adapter_lpuart.o
                                                  ./component/serial_manager/fsl_component_serial_port_uart.o
HAL_UartReceiveBlocking                           ./component/uart/fsl_adapter_lpuart.o
                                                  ./component/serial_manager/fsl_component_serial_port_uart.o
HAL_UartSendBlocking                              ./component/uart/fsl_adapter_lpuart.o
                                                  ./component/serial_manager/fsl_component_serial_port_uart.o
HardFault_Handler                                 ./source/semihost_hardfault.o
                                                  ./startup/startup_mimxrt1052.o
IntDefaultHandler                                 ./startup/startup_mimxrt1052.o
KPP_DriverIRQHandler                              ./startup/startup_mimxrt1052.o
KPP_IRQHandler                                    ./startup/startup_mimxrt1052.o
LCDIF_DriverIRQHandler                            ./startup/startup_mimxrt1052.o
LCDIF_IRQHandler                                  ./startup/startup_mimxrt1052.o
LIST_AddHead                                      ./component/lists/fsl_component_generic_list.o
LIST_AddPrevElement                               ./component/lists/fsl_component_generic_list.o
LIST_AddTail                                      ./component/lists/fsl_component_generic_list.o
LIST_GetAvailableSize                             ./component/lists/fsl_component_generic_list.o
LIST_GetHead                                      ./component/lists/fsl_component_generic_list.o
LIST_GetList                                      ./component/lists/fsl_component_generic_list.o
LIST_GetNext                                      ./component/lists/fsl_component_generic_list.o
LIST_GetPrev                                      ./component/lists/fsl_component_generic_list.o
LIST_GetSize                                      ./component/lists/fsl_component_generic_list.o
LIST_Init                                         ./component/lists/fsl_component_generic_list.o
LIST_RemoveElement                                ./component/lists/fsl_component_generic_list.o
LIST_RemoveHead                                   ./component/lists/fsl_component_generic_list.o
LPI2C1_DriverIRQHandler                           ./startup/startup_mimxrt1052.o
LPI2C1_IRQHandler                                 ./startup/startup_mimxrt1052.o
LPI2C2_DriverIRQHandler                           ./startup/startup_mimxrt1052.o
LPI2C2_IRQHandler                                 ./startup/startup_mimxrt1052.o
LPI2C3_DriverIRQHandler                           ./startup/startup_mimxrt1052.o
LPI2C3_IRQHandler                                 ./startup/startup_mimxrt1052.o
LPI2C4_DriverIRQHandler                           ./startup/startup_mimxrt1052.o
LPI2C4_IRQHandler                                 ./startup/startup_mimxrt1052.o
LPSPI1_DriverIRQHandler                           ./startup/startup_mimxrt1052.o
LPSPI1_IRQHandler                                 ./startup/startup_mimxrt1052.o
LPSPI2_DriverIRQHandler                           ./startup/startup_mimxrt1052.o
LPSPI2_IRQHandler                                 ./startup/startup_mimxrt1052.o
LPSPI3_DriverIRQHandler                           ./startup/startup_mimxrt1052.o
LPSPI3_IRQHandler                                 ./startup/startup_mimxrt1052.o
LPSPI4_DriverIRQHandler                           ./startup/startup_mimxrt1052.o
LPSPI4_IRQHandler                                 ./startup/startup_mimxrt1052.o
LPUART1_DriverIRQHandler                          ./drivers/fsl_lpuart.o
                                                  ./startup/startup_mimxrt1052.o
LPUART1_IRQHandler                                ./startup/startup_mimxrt1052.o
LPUART2_DriverIRQHandler                          ./drivers/fsl_lpuart.o
                                                  ./startup/startup_mimxrt1052.o
LPUART2_IRQHandler                                ./startup/startup_mimxrt1052.o
LPUART3_DriverIRQHandler                          ./drivers/fsl_lpuart.o
                                                  ./startup/startup_mimxrt1052.o
LPUART3_IRQHandler                                ./startup/startup_mimxrt1052.o
LPUART4_DriverIRQHandler                          ./drivers/fsl_lpuart.o
                                                  ./startup/startup_mimxrt1052.o
LPUART4_IRQHandler                                ./startup/startup_mimxrt1052.o
LPUART5_DriverIRQHandler                          ./drivers/fsl_lpuart.o
                                                  ./startup/startup_mimxrt1052.o
LPUART5_IRQHandler                                ./startup/startup_mimxrt1052.o
LPUART6_DriverIRQHandler                          ./drivers/fsl_lpuart.o
                                                  ./startup/startup_mimxrt1052.o
LPUART6_IRQHandler                                ./startup/startup_mimxrt1052.o
LPUART7_DriverIRQHandler                          ./drivers/fsl_lpuart.o
                                                  ./startup/startup_mimxrt1052.o
LPUART7_IRQHandler                                ./startup/startup_mimxrt1052.o
LPUART8_DriverIRQHandler                          ./drivers/fsl_lpuart.o
                                                  ./startup/startup_mimxrt1052.o
LPUART8_IRQHandler                                ./startup/startup_mimxrt1052.o
LPUART_ClearStatusFlags                           ./drivers/fsl_lpuart.o
LPUART_Deinit                                     ./drivers/fsl_lpuart.o
                                                  ./component/uart/fsl_adapter_lpuart.o
LPUART_DisableInterrupts                          ./drivers/fsl_lpuart.o
LPUART_Enable9bitMode                             ./drivers/fsl_lpuart.o
LPUART_EnableInterrupts                           ./drivers/fsl_lpuart.o
LPUART_GetDefaultConfig                           ./drivers/fsl_lpuart.o
                                                  ./component/uart/fsl_adapter_lpuart.o
LPUART_GetEnabledInterrupts                       ./drivers/fsl_lpuart.o
LPUART_GetInstance                                ./drivers/fsl_lpuart.o
LPUART_GetStatusFlags                             ./drivers/fsl_lpuart.o
LPUART_Init                                       ./drivers/fsl_lpuart.o
                                                  ./component/uart/fsl_adapter_lpuart.o
LPUART_ReadBlocking                               ./drivers/fsl_lpuart.o
                                                  ./component/uart/fsl_adapter_lpuart.o
LPUART_SendAddress                                ./drivers/fsl_lpuart.o
LPUART_SetBaudRate                                ./drivers/fsl_lpuart.o
LPUART_TransferAbortReceive                       ./drivers/fsl_lpuart.o
LPUART_TransferAbortSend                          ./drivers/fsl_lpuart.o
LPUART_TransferCreateHandle                       ./drivers/fsl_lpuart.o
LPUART_TransferGetReceiveCount                    ./drivers/fsl_lpuart.o
LPUART_TransferGetRxRingBufferLength              ./drivers/fsl_lpuart.o
LPUART_TransferGetSendCount                       ./drivers/fsl_lpuart.o
LPUART_TransferHandleErrorIRQ                     ./drivers/fsl_lpuart.o
LPUART_TransferHandleIRQ                          ./drivers/fsl_lpuart.o
LPUART_TransferReceiveNonBlocking                 ./drivers/fsl_lpuart.o
LPUART_TransferSendNonBlocking                    ./drivers/fsl_lpuart.o
LPUART_TransferStartRingBuffer                    ./drivers/fsl_lpuart.o
LPUART_TransferStopRingBuffer                     ./drivers/fsl_lpuart.o
LPUART_WriteBlocking                              ./drivers/fsl_lpuart.o
                                                  ./component/uart/fsl_adapter_lpuart.o
MemManage_Handler                                 ./startup/startup_mimxrt1052.o
NMI_Handler                                       ./startup/startup_mimxrt1052.o
PIT_DriverIRQHandler                              ./startup/startup_mimxrt1052.o
PIT_IRQHandler                                    ./startup/startup_mimxrt1052.o
PMU_EVENT_DriverIRQHandler                        ./startup/startup_mimxrt1052.o
PMU_EVENT_IRQHandler                              ./startup/startup_mimxrt1052.o
PWM1_0_DriverIRQHandler                           ./startup/startup_mimxrt1052.o
PWM1_0_IRQHandler                                 ./startup/startup_mimxrt1052.o
PWM1_1_DriverIRQHandler                           ./startup/startup_mimxrt1052.o
PWM1_1_IRQHandler                                 ./startup/startup_mimxrt1052.o
PWM1_2_DriverIRQHandler                           ./startup/startup_mimxrt1052.o
PWM1_2_IRQHandler                                 ./startup/startup_mimxrt1052.o
PWM1_3_DriverIRQHandler                           ./startup/startup_mimxrt1052.o
PWM1_3_IRQHandler                                 ./startup/startup_mimxrt1052.o
PWM1_FAULT_DriverIRQHandler                       ./startup/startup_mimxrt1052.o
PWM1_FAULT_IRQHandler                             ./startup/startup_mimxrt1052.o
PWM2_0_DriverIRQHandler                           ./startup/startup_mimxrt1052.o
PWM2_0_IRQHandler                                 ./startup/startup_mimxrt1052.o
PWM2_1_DriverIRQHandler                           ./startup/startup_mimxrt1052.o
PWM2_1_IRQHandler                                 ./startup/startup_mimxrt1052.o
PWM2_2_DriverIRQHandler                           ./startup/startup_mimxrt1052.o
PWM2_2_IRQHandler                                 ./startup/startup_mimxrt1052.o
PWM2_3_DriverIRQHandler                           ./startup/startup_mimxrt1052.o
PWM2_3_IRQHandler                                 ./startup/startup_mimxrt1052.o
PWM2_FAULT_DriverIRQHandler                       ./startup/startup_mimxrt1052.o
PWM2_FAULT_IRQHandler                             ./startup/startup_mimxrt1052.o
PWM3_0_DriverIRQHandler                           ./startup/startup_mimxrt1052.o
PWM3_0_IRQHandler                                 ./startup/startup_mimxrt1052.o
PWM3_1_DriverIRQHandler                           ./startup/startup_mimxrt1052.o
PWM3_1_IRQHandler                                 ./startup/startup_mimxrt1052.o
PWM3_2_DriverIRQHandler                           ./startup/startup_mimxrt1052.o
PWM3_2_IRQHandler                                 ./startup/startup_mimxrt1052.o
PWM3_3_DriverIRQHandler                           ./startup/startup_mimxrt1052.o
PWM3_3_IRQHandler                                 ./startup/startup_mimxrt1052.o
PWM3_FAULT_DriverIRQHandler                       ./startup/startup_mimxrt1052.o
PWM3_FAULT_IRQHandler                             ./startup/startup_mimxrt1052.o
PWM4_0_DriverIRQHandler                           ./startup/startup_mimxrt1052.o
PWM4_0_IRQHandler                                 ./startup/startup_mimxrt1052.o
PWM4_1_DriverIRQHandler                           ./startup/startup_mimxrt1052.o
PWM4_1_IRQHandler                                 ./startup/startup_mimxrt1052.o
PWM4_2_DriverIRQHandler                           ./startup/startup_mimxrt1052.o
PWM4_2_IRQHandler                                 ./startup/startup_mimxrt1052.o
PWM4_3_DriverIRQHandler                           ./startup/startup_mimxrt1052.o
PWM4_3_IRQHandler                                 ./startup/startup_mimxrt1052.o
PWM4_FAULT_DriverIRQHandler                       ./startup/startup_mimxrt1052.o
PWM4_FAULT_IRQHandler                             ./startup/startup_mimxrt1052.o
PXP_DriverIRQHandler                              ./startup/startup_mimxrt1052.o
PXP_IRQHandler                                    ./startup/startup_mimxrt1052.o
PendSV_Handler                                    ./startup/startup_mimxrt1052.o
RTWDOG_DriverIRQHandler                           ./startup/startup_mimxrt1052.o
RTWDOG_IRQHandler                                 ./startup/startup_mimxrt1052.o
Reserved115_DriverIRQHandler                      ./startup/startup_mimxrt1052.o
Reserved115_IRQHandler                            ./startup/startup_mimxrt1052.o
Reserved123_DriverIRQHandler                      ./startup/startup_mimxrt1052.o
Reserved123_IRQHandler                            ./startup/startup_mimxrt1052.o
Reserved143_DriverIRQHandler                      ./startup/startup_mimxrt1052.o
Reserved143_IRQHandler                            ./startup/startup_mimxrt1052.o
Reserved144_DriverIRQHandler                      ./startup/startup_mimxrt1052.o
Reserved144_IRQHandler                            ./startup/startup_mimxrt1052.o
Reserved68_DriverIRQHandler                       ./startup/startup_mimxrt1052.o
Reserved68_IRQHandler                             ./startup/startup_mimxrt1052.o
Reserved78_DriverIRQHandler                       ./startup/startup_mimxrt1052.o
Reserved78_IRQHandler                             ./startup/startup_mimxrt1052.o
Reserved86_DriverIRQHandler                       ./startup/startup_mimxrt1052.o
Reserved86_IRQHandler                             ./startup/startup_mimxrt1052.o
Reserved87_DriverIRQHandler                       ./startup/startup_mimxrt1052.o
Reserved87_IRQHandler                             ./startup/startup_mimxrt1052.o
ResetISR                                          ./startup/startup_mimxrt1052.o
SAI1_DriverIRQHandler                             ./startup/startup_mimxrt1052.o
SAI1_IRQHandler                                   ./startup/startup_mimxrt1052.o
SAI2_DriverIRQHandler                             ./startup/startup_mimxrt1052.o
SAI2_IRQHandler                                   ./startup/startup_mimxrt1052.o
SAI3_RX_DriverIRQHandler                          ./startup/startup_mimxrt1052.o
SAI3_RX_IRQHandler                                ./startup/startup_mimxrt1052.o
SAI3_TX_DriverIRQHandler                          ./startup/startup_mimxrt1052.o
SAI3_TX_IRQHandler                                ./startup/startup_mimxrt1052.o
SDK_DelayAtLeastUs                                ./drivers/fsl_common_arm.o
SDK_Free                                          ./drivers/fsl_common.o
SDK_Malloc                                        ./drivers/fsl_common.o
SEMC_DriverIRQHandler                             ./startup/startup_mimxrt1052.o
SEMC_IRQHandler                                   ./startup/startup_mimxrt1052.o
SJC_DriverIRQHandler                              ./startup/startup_mimxrt1052.o
SJC_IRQHandler                                    ./startup/startup_mimxrt1052.o
SNVS_HP_WRAPPER_DriverIRQHandler                  ./startup/startup_mimxrt1052.o
SNVS_HP_WRAPPER_IRQHandler                        ./startup/startup_mimxrt1052.o
SNVS_HP_WRAPPER_TZ_DriverIRQHandler               ./startup/startup_mimxrt1052.o
SNVS_HP_WRAPPER_TZ_IRQHandler                     ./startup/startup_mimxrt1052.o
SNVS_LP_WRAPPER_DriverIRQHandler                  ./startup/startup_mimxrt1052.o
SNVS_LP_WRAPPER_IRQHandler                        ./startup/startup_mimxrt1052.o
SPDIF_DriverIRQHandler                            ./startup/startup_mimxrt1052.o
SPDIF_IRQHandler                                  ./startup/startup_mimxrt1052.o
SRC_DriverIRQHandler                              ./startup/startup_mimxrt1052.o
SRC_IRQHandler                                    ./startup/startup_mimxrt1052.o
SVC_Handler                                       ./startup/startup_mimxrt1052.o
SerialManager_CloseReadHandle                     ./component/serial_manager/fsl_component_serial_manager.o
                                                  ./utilities/fsl_debug_console.o
SerialManager_CloseWriteHandle                    ./component/serial_manager/fsl_component_serial_manager.o
                                                  ./utilities/fsl_debug_console.o
SerialManager_Deinit                              ./component/serial_manager/fsl_component_serial_manager.o
                                                  ./utilities/fsl_debug_console.o
SerialManager_EnterLowpower                       ./component/serial_manager/fsl_component_serial_manager.o
                                                  ./utilities/fsl_debug_console.o
SerialManager_ExitLowpower                        ./component/serial_manager/fsl_component_serial_manager.o
                                                  ./utilities/fsl_debug_console.o
SerialManager_Init                                ./component/serial_manager/fsl_component_serial_manager.o
                                                  ./utilities/fsl_debug_console.o
SerialManager_OpenReadHandle                      ./component/serial_manager/fsl_component_serial_manager.o
                                                  ./utilities/fsl_debug_console.o
SerialManager_OpenWriteHandle                     ./component/serial_manager/fsl_component_serial_manager.o
                                                  ./utilities/fsl_debug_console.o
SerialManager_ReadBlocking                        ./component/serial_manager/fsl_component_serial_manager.o
                                                  ./utilities/fsl_debug_console.o
SerialManager_SetLowpowerCriticalCb               ./component/serial_manager/fsl_component_serial_manager.o
SerialManager_WriteBlocking                       ./component/serial_manager/fsl_component_serial_manager.o
                                                  ./utilities/fsl_debug_console.o
Serial_UartDeinit                                 ./component/serial_manager/fsl_component_serial_port_uart.o
                                                  ./component/serial_manager/fsl_component_serial_manager.o
Serial_UartEnterLowpower                          ./component/serial_manager/fsl_component_serial_port_uart.o
                                                  ./component/serial_manager/fsl_component_serial_manager.o
Serial_UartExitLowpower                           ./component/serial_manager/fsl_component_serial_port_uart.o
                                                  ./component/serial_manager/fsl_component_serial_manager.o
Serial_UartInit                                   ./component/serial_manager/fsl_component_serial_port_uart.o
                                                  ./component/serial_manager/fsl_component_serial_manager.o
Serial_UartRead                                   ./component/serial_manager/fsl_component_serial_port_uart.o
                                                  ./component/serial_manager/fsl_component_serial_manager.o
Serial_UartWrite                                  ./component/serial_manager/fsl_component_serial_port_uart.o
                                                  ./component/serial_manager/fsl_component_serial_manager.o
StrFormatPrintf                                   ./utilities/fsl_str.o
                                                  ./utilities/fsl_debug_console.o
StrFormatScanf                                    ./utilities/fsl_str.o
                                                  ./utilities/fsl_debug_console.o
SysTick_Handler                                   ./startup/startup_mimxrt1052.o
SystemCoreClock                                   ./device/system_MIMXRT1052.o
                                                  ./board/clock_config.o
SystemCoreClockUpdate                             ./device/system_MIMXRT1052.o
SystemInit                                        ./device/system_MIMXRT1052.o
                                                  ./startup/startup_mimxrt1052.o
SystemInitHook                                    ./device/system_MIMXRT1052.o
TEMP_LOW_HIGH_DriverIRQHandler                    ./startup/startup_mimxrt1052.o
TEMP_LOW_HIGH_IRQHandler                          ./startup/startup_mimxrt1052.o
TEMP_PANIC_DriverIRQHandler                       ./startup/startup_mimxrt1052.o
TEMP_PANIC_IRQHandler                             ./startup/startup_mimxrt1052.o
TMR1_DriverIRQHandler                             ./startup/startup_mimxrt1052.o
TMR1_IRQHandler                                   ./startup/startup_mimxrt1052.o
TMR2_DriverIRQHandler                             ./startup/startup_mimxrt1052.o
TMR2_IRQHandler                                   ./startup/startup_mimxrt1052.o
TMR3_DriverIRQHandler                             ./startup/startup_mimxrt1052.o
TMR3_IRQHandler                                   ./startup/startup_mimxrt1052.o
TMR4_DriverIRQHandler                             ./startup/startup_mimxrt1052.o
TMR4_IRQHandler                                   ./startup/startup_mimxrt1052.o
TRNG_DriverIRQHandler                             ./startup/startup_mimxrt1052.o
TRNG_IRQHandler                                   ./startup/startup_mimxrt1052.o
TSC_DIG_DriverIRQHandler                          ./startup/startup_mimxrt1052.o
TSC_DIG_IRQHandler                                ./startup/startup_mimxrt1052.o
USB_OTG1_DriverIRQHandler                         ./startup/startup_mimxrt1052.o
USB_OTG1_IRQHandler                               ./startup/startup_mimxrt1052.o
USB_OTG2_DriverIRQHandler                         ./startup/startup_mimxrt1052.o
USB_OTG2_IRQHandler                               ./startup/startup_mimxrt1052.o
USB_PHY1_DriverIRQHandler                         ./startup/startup_mimxrt1052.o
USB_PHY1_IRQHandler                               ./startup/startup_mimxrt1052.o
USB_PHY2_DriverIRQHandler                         ./startup/startup_mimxrt1052.o
USB_PHY2_IRQHandler                               ./startup/startup_mimxrt1052.o
USDHC1_DriverIRQHandler                           ./startup/startup_mimxrt1052.o
USDHC1_IRQHandler                                 ./startup/startup_mimxrt1052.o
USDHC2_DriverIRQHandler                           ./startup/startup_mimxrt1052.o
USDHC2_IRQHandler                                 ./startup/startup_mimxrt1052.o
UsageFault_Handler                                ./startup/startup_mimxrt1052.o
WDOG1_DriverIRQHandler                            ./startup/startup_mimxrt1052.o
WDOG1_IRQHandler                                  ./startup/startup_mimxrt1052.o
WDOG2_DriverIRQHandler                            ./startup/startup_mimxrt1052.o
WDOG2_IRQHandler                                  ./startup/startup_mimxrt1052.o
XBAR1_IRQ_0_1_DriverIRQHandler                    ./startup/startup_mimxrt1052.o
XBAR1_IRQ_0_1_IRQHandler                          ./startup/startup_mimxrt1052.o
XBAR1_IRQ_2_3_DriverIRQHandler                    ./startup/startup_mimxrt1052.o
XBAR1_IRQ_2_3_IRQHandler                          ./startup/startup_mimxrt1052.o
_Csys_alloc                                       c:/nxp/mcuxpressoide_11.6.0_8187/ide/plugins/com.nxp.mcuxpresso.tools.win32_11.6.0.202112161359/tools/bin/../lib/gcc/arm-none-eabi/10.3.1/../../../../arm-none-eabi/lib/thumb/v7e-m+fp/hard\libcr_c.a(alloc.o)
                                                  c:/nxp/mcuxpressoide_11.6.0_8187/ide/plugins/com.nxp.mcuxpresso.tools.win32_11.6.0.202112161359/tools/bin/../lib/gcc/arm-none-eabi/10.3.1/../../../../arm-none-eabi/lib/thumb/v7e-m+fp/hard\libcr_c.a(_deferredlazyseek.o)
                                                  c:/nxp/mcuxpressoide_11.6.0_8187/ide/plugins/com.nxp.mcuxpresso.tools.win32_11.6.0.202112161359/tools/bin/../lib/gcc/arm-none-eabi/10.3.1/../../../../arm-none-eabi/lib/thumb/v7e-m+fp/hard\libcr_c.a(__fillbuf.o)
_Csys_read_                                       c:/nxp/mcuxpressoide_11.6.0_8187/ide/plugins/com.nxp.mcuxpresso.tools.win32_11.6.0.202112161359/tools/bin/../lib/gcc/arm-none-eabi/10.3.1/../../../../arm-none-eabi/lib/thumb/v7e-m+fp/hard\libcr_c.a(__fillbuf.o)
_Cwritebuf                                        c:/nxp/mcuxpressoide_11.6.0_8187/ide/plugins/com.nxp.mcuxpresso.tools.win32_11.6.0.202112161359/tools/bin/../lib/gcc/arm-none-eabi/10.3.1/../../../../arm-none-eabi/lib/thumb/v7e-m+fp/hard\libcr_c.a(_writebuf.o)
                                                  c:/nxp/mcuxpressoide_11.6.0_8187/ide/plugins/com.nxp.mcuxpresso.tools.win32_11.6.0.202112161359/tools/bin/../lib/gcc/arm-none-eabi/10.3.1/../../../../arm-none-eabi/lib/thumb/v7e-m+fp/hard\libcr_c.a(_fflush.o)
                                                  c:/nxp/mcuxpressoide_11.6.0_8187/ide/plugins/com.nxp.mcuxpresso.tools.win32_11.6.0.202112161359/tools/bin/../lib/gcc/arm-none-eabi/10.3.1/../../../../arm-none-eabi/lib/thumb/v7e-m+fp/hard\libcr_c.a(_deferredlazyseek.o)
__Ciob                                            c:/nxp/mcuxpressoide_11.6.0_8187/ide/plugins/com.nxp.mcuxpresso.tools.win32_11.6.0.202112161359/tools/bin/../lib/gcc/arm-none-eabi/10.3.1/../../../../arm-none-eabi/lib/thumb/v7e-m+fp/hard\libcr_nohost_nf.a(__ciob.o)
                                                  c:/nxp/mcuxpressoide_11.6.0_8187/ide/plugins/com.nxp.mcuxpresso.tools.win32_11.6.0.202112161359/tools/bin/../lib/gcc/arm-none-eabi/10.3.1/../../../../arm-none-eabi/lib/thumb/v7e-m+fp/hard\libcr_c.a(fflush.o)
                                                  c:/nxp/mcuxpressoide_11.6.0_8187/ide/plugins/com.nxp.mcuxpresso.tools.win32_11.6.0.202112161359/tools/bin/../lib/gcc/arm-none-eabi/10.3.1/../../../../arm-none-eabi/lib/thumb/v7e-m+fp/hard\libcr_c.a(scanf.o)
                                                  c:/nxp/mcuxpressoide_11.6.0_8187/ide/plugins/com.nxp.mcuxpresso.tools.win32_11.6.0.202112161359/tools/bin/../lib/gcc/arm-none-eabi/10.3.1/../../../../arm-none-eabi/lib/thumb/v7e-m+fp/hard\libcr_c.a(initio.o)
__Vectors                                         ./startup/startup_mimxrt1052.o
                                                  ./xip/fsl_flexspi_nor_boot.o
__aeabi_cdcmpeq                                   c:/nxp/mcuxpressoide_11.6.0_8187/ide/plugins/com.nxp.mcuxpresso.tools.win32_11.6.0.202112161359/tools/bin/../lib/gcc/arm-none-eabi/10.3.1/thumb/v7e-m+fp/hard\libcr_eabihelpers.a(double.o)
__aeabi_cdcmple                                   c:/nxp/mcuxpressoide_11.6.0_8187/ide/plugins/com.nxp.mcuxpresso.tools.win32_11.6.0.202112161359/tools/bin/../lib/gcc/arm-none-eabi/10.3.1/thumb/v7e-m+fp/hard\libcr_eabihelpers.a(double.o)
__aeabi_cdrcmple                                  c:/nxp/mcuxpressoide_11.6.0_8187/ide/plugins/com.nxp.mcuxpresso.tools.win32_11.6.0.202112161359/tools/bin/../lib/gcc/arm-none-eabi/10.3.1/thumb/v7e-m+fp/hard\libcr_eabihelpers.a(double.o)
__aeabi_d2f                                       c:/nxp/mcuxpressoide_11.6.0_8187/ide/plugins/com.nxp.mcuxpresso.tools.win32_11.6.0.202112161359/tools/bin/../lib/gcc/arm-none-eabi/10.3.1/thumb/v7e-m+fp/hard\libcr_eabihelpers.a(double.o)
                                                  c:/nxp/mcuxpressoide_11.6.0_8187/ide/plugins/com.nxp.mcuxpresso.tools.win32_11.6.0.202112161359/tools/bin/../lib/gcc/arm-none-eabi/10.3.1/../../../../arm-none-eabi/lib/thumb/v7e-m+fp/hard\libcr_c.a(scanf.o)
__aeabi_d2iz                                      c:/nxp/mcuxpressoide_11.6.0_8187/ide/plugins/com.nxp.mcuxpresso.tools.win32_11.6.0.202112161359/tools/bin/../lib/gcc/arm-none-eabi/10.3.1/thumb/v7e-m+fp/hard\libcr_eabihelpers.a(double.o)
__aeabi_d2lz                                      c:/nxp/mcuxpressoide_11.6.0_8187/ide/plugins/com.nxp.mcuxpresso.tools.win32_11.6.0.202112161359/tools/bin/../lib/gcc/arm-none-eabi/10.3.1/thumb/v7e-m+fp/hard\libcr_eabihelpers.a(double.o)
__aeabi_d2uiz                                     c:/nxp/mcuxpressoide_11.6.0_8187/ide/plugins/com.nxp.mcuxpresso.tools.win32_11.6.0.202112161359/tools/bin/../lib/gcc/arm-none-eabi/10.3.1/thumb/v7e-m+fp/hard\libcr_eabihelpers.a(double.o)
__aeabi_d2ulz                                     c:/nxp/mcuxpressoide_11.6.0_8187/ide/plugins/com.nxp.mcuxpresso.tools.win32_11.6.0.202112161359/tools/bin/../lib/gcc/arm-none-eabi/10.3.1/thumb/v7e-m+fp/hard\libcr_eabihelpers.a(double.o)
__aeabi_dadd                                      c:/nxp/mcuxpressoide_11.6.0_8187/ide/plugins/com.nxp.mcuxpresso.tools.win32_11.6.0.202112161359/tools/bin/../lib/gcc/arm-none-eabi/10.3.1/thumb/v7e-m+fp/hard\libcr_eabihelpers.a(double.o)
                                                  c:/nxp/mcuxpressoide_11.6.0_8187/ide/plugins/com.nxp.mcuxpresso.tools.win32_11.6.0.202112161359/tools/bin/../lib/gcc/arm-none-eabi/10.3.1/../../../../arm-none-eabi/lib/thumb/v7e-m+fp/hard\libcr_c.a(scanf.o)
__aeabi_dcmpeq                                    c:/nxp/mcuxpressoide_11.6.0_8187/ide/plugins/com.nxp.mcuxpresso.tools.win32_11.6.0.202112161359/tools/bin/../lib/gcc/arm-none-eabi/10.3.1/thumb/v7e-m+fp/hard\libcr_eabihelpers.a(double.o)
                                                  c:/nxp/mcuxpressoide_11.6.0_8187/ide/plugins/com.nxp.mcuxpresso.tools.win32_11.6.0.202112161359/tools/bin/../lib/gcc/arm-none-eabi/10.3.1/../../../../arm-none-eabi/lib/thumb/v7e-m+fp/hard\libcr_c.a(_ldexpl.o)
                                                  c:/nxp/mcuxpressoide_11.6.0_8187/ide/plugins/com.nxp.mcuxpresso.tools.win32_11.6.0.202112161359/tools/bin/../lib/gcc/arm-none-eabi/10.3.1/../../../../arm-none-eabi/lib/thumb/v7e-m+fp/hard\libcr_c.a(_frexpl.o)
                                                  c:/nxp/mcuxpressoide_11.6.0_8187/ide/plugins/com.nxp.mcuxpresso.tools.win32_11.6.0.202112161359/tools/bin/../lib/gcc/arm-none-eabi/10.3.1/../../../../arm-none-eabi/lib/thumb/v7e-m+fp/hard\libcr_c.a(scanf.o)
__aeabi_dcmpge                                    c:/nxp/mcuxpressoide_11.6.0_8187/ide/plugins/com.nxp.mcuxpresso.tools.win32_11.6.0.202112161359/tools/bin/../lib/gcc/arm-none-eabi/10.3.1/thumb/v7e-m+fp/hard\libcr_eabihelpers.a(double.o)
                                                  c:/nxp/mcuxpressoide_11.6.0_8187/ide/plugins/com.nxp.mcuxpresso.tools.win32_11.6.0.202112161359/tools/bin/../lib/gcc/arm-none-eabi/10.3.1/../../../../arm-none-eabi/lib/thumb/v7e-m+fp/hard\libcr_c.a(scanf.o)
__aeabi_dcmpgt                                    c:/nxp/mcuxpressoide_11.6.0_8187/ide/plugins/com.nxp.mcuxpresso.tools.win32_11.6.0.202112161359/tools/bin/../lib/gcc/arm-none-eabi/10.3.1/thumb/v7e-m+fp/hard\libcr_eabihelpers.a(double.o)
__aeabi_dcmple                                    c:/nxp/mcuxpressoide_11.6.0_8187/ide/plugins/com.nxp.mcuxpresso.tools.win32_11.6.0.202112161359/tools/bin/../lib/gcc/arm-none-eabi/10.3.1/thumb/v7e-m+fp/hard\libcr_eabihelpers.a(double.o)
__aeabi_dcmplt                                    c:/nxp/mcuxpressoide_11.6.0_8187/ide/plugins/com.nxp.mcuxpresso.tools.win32_11.6.0.202112161359/tools/bin/../lib/gcc/arm-none-eabi/10.3.1/thumb/v7e-m+fp/hard\libcr_eabihelpers.a(double.o)
__aeabi_dcmpun                                    c:/nxp/mcuxpressoide_11.6.0_8187/ide/plugins/com.nxp.mcuxpresso.tools.win32_11.6.0.202112161359/tools/bin/../lib/gcc/arm-none-eabi/10.3.1/thumb/v7e-m+fp/hard\libcr_eabihelpers.a(double.o)
__aeabi_ddiv                                      c:/nxp/mcuxpressoide_11.6.0_8187/ide/plugins/com.nxp.mcuxpresso.tools.win32_11.6.0.202112161359/tools/bin/../lib/gcc/arm-none-eabi/10.3.1/thumb/v7e-m+fp/hard\libcr_eabihelpers.a(double.o)
                                                  c:/nxp/mcuxpressoide_11.6.0_8187/ide/plugins/com.nxp.mcuxpresso.tools.win32_11.6.0.202112161359/tools/bin/../lib/gcc/arm-none-eabi/10.3.1/../../../../arm-none-eabi/lib/thumb/v7e-m+fp/hard\libcr_c.a(scanf.o)
__aeabi_dmul                                      c:/nxp/mcuxpressoide_11.6.0_8187/ide/plugins/com.nxp.mcuxpresso.tools.win32_11.6.0.202112161359/tools/bin/../lib/gcc/arm-none-eabi/10.3.1/thumb/v7e-m+fp/hard\libcr_eabihelpers.a(double.o)
                                                  c:/nxp/mcuxpressoide_11.6.0_8187/ide/plugins/com.nxp.mcuxpresso.tools.win32_11.6.0.202112161359/tools/bin/../lib/gcc/arm-none-eabi/10.3.1/../../../../arm-none-eabi/lib/thumb/v7e-m+fp/hard\libcr_c.a(scanf.o)
__aeabi_dneg                                      c:/nxp/mcuxpressoide_11.6.0_8187/ide/plugins/com.nxp.mcuxpresso.tools.win32_11.6.0.202112161359/tools/bin/../lib/gcc/arm-none-eabi/10.3.1/thumb/v7e-m+fp/hard\libcr_eabihelpers.a(double.o)
__aeabi_drsub                                     c:/nxp/mcuxpressoide_11.6.0_8187/ide/plugins/com.nxp.mcuxpresso.tools.win32_11.6.0.202112161359/tools/bin/../lib/gcc/arm-none-eabi/10.3.1/thumb/v7e-m+fp/hard\libcr_eabihelpers.a(double.o)
__aeabi_dsub                                      c:/nxp/mcuxpressoide_11.6.0_8187/ide/plugins/com.nxp.mcuxpresso.tools.win32_11.6.0.202112161359/tools/bin/../lib/gcc/arm-none-eabi/10.3.1/thumb/v7e-m+fp/hard\libcr_eabihelpers.a(double.o)
                                                  c:/nxp/mcuxpressoide_11.6.0_8187/ide/plugins/com.nxp.mcuxpresso.tools.win32_11.6.0.202112161359/tools/bin/../lib/gcc/arm-none-eabi/10.3.1/../../../../arm-none-eabi/lib/thumb/v7e-m+fp/hard\libcr_c.a(scanf.o)
__aeabi_i2d                                       c:/nxp/mcuxpressoide_11.6.0_8187/ide/plugins/com.nxp.mcuxpresso.tools.win32_11.6.0.202112161359/tools/bin/../lib/gcc/arm-none-eabi/10.3.1/thumb/v7e-m+fp/hard\libcr_eabihelpers.a(double.o)
                                                  c:/nxp/mcuxpressoide_11.6.0_8187/ide/plugins/com.nxp.mcuxpresso.tools.win32_11.6.0.202112161359/tools/bin/../lib/gcc/arm-none-eabi/10.3.1/../../../../arm-none-eabi/lib/thumb/v7e-m+fp/hard\libcr_c.a(scanf.o)
__aeabi_idiv0                                     c:/nxp/mcuxpressoide_11.6.0_8187/ide/plugins/com.nxp.mcuxpresso.tools.win32_11.6.0.202112161359/tools/bin/../lib/gcc/arm-none-eabi/10.3.1/thumb/v7e-m+fp/hard\libcr_eabihelpers.a(division_idiv0.o)
                                                  c:/nxp/mcuxpressoide_11.6.0_8187/ide/plugins/com.nxp.mcuxpresso.tools.win32_11.6.0.202112161359/tools/bin/../lib/gcc/arm-none-eabi/10.3.1/thumb/v7e-m+fp/hard\libcr_eabihelpers.a(division_64.o)
__aeabi_l2d                                       c:/nxp/mcuxpressoide_11.6.0_8187/ide/plugins/com.nxp.mcuxpresso.tools.win32_11.6.0.202112161359/tools/bin/../lib/gcc/arm-none-eabi/10.3.1/thumb/v7e-m+fp/hard\libcr_eabihelpers.a(double.o)
__aeabi_ldivmod                                   c:/nxp/mcuxpressoide_11.6.0_8187/ide/plugins/com.nxp.mcuxpresso.tools.win32_11.6.0.202112161359/tools/bin/../lib/gcc/arm-none-eabi/10.3.1/thumb/v7e-m+fp/hard\libcr_eabihelpers.a(division_64.o)
__aeabi_lowlevel_memset                           c:/nxp/mcuxpressoide_11.6.0_8187/ide/plugins/com.nxp.mcuxpresso.tools.win32_11.6.0.202112161359/tools/bin/../lib/gcc/arm-none-eabi/10.3.1/thumb/v7e-m+fp/hard\libcr_eabihelpers.a(memcpy.o)
                                                  c:/nxp/mcuxpressoide_11.6.0_8187/ide/plugins/com.nxp.mcuxpresso.tools.win32_11.6.0.202112161359/tools/bin/../lib/gcc/arm-none-eabi/10.3.1/../../../../arm-none-eabi/lib/thumb/v7e-m+fp/hard\libcr_c.a(memset.o)
__aeabi_memclr                                    c:/nxp/mcuxpressoide_11.6.0_8187/ide/plugins/com.nxp.mcuxpresso.tools.win32_11.6.0.202112161359/tools/bin/../lib/gcc/arm-none-eabi/10.3.1/thumb/v7e-m+fp/hard\libcr_eabihelpers.a(memcpy.o)
__aeabi_memclr4                                   c:/nxp/mcuxpressoide_11.6.0_8187/ide/plugins/com.nxp.mcuxpresso.tools.win32_11.6.0.202112161359/tools/bin/../lib/gcc/arm-none-eabi/10.3.1/thumb/v7e-m+fp/hard\libcr_eabihelpers.a(memcpy.o)
__aeabi_memclr8                                   c:/nxp/mcuxpressoide_11.6.0_8187/ide/plugins/com.nxp.mcuxpresso.tools.win32_11.6.0.202112161359/tools/bin/../lib/gcc/arm-none-eabi/10.3.1/thumb/v7e-m+fp/hard\libcr_eabihelpers.a(memcpy.o)
__aeabi_memcpy                                    c:/nxp/mcuxpressoide_11.6.0_8187/ide/plugins/com.nxp.mcuxpresso.tools.win32_11.6.0.202112161359/tools/bin/../lib/gcc/arm-none-eabi/10.3.1/thumb/v7e-m+fp/hard\libcr_eabihelpers.a(memcpy.o)
                                                  c:/nxp/mcuxpressoide_11.6.0_8187/ide/plugins/com.nxp.mcuxpresso.tools.win32_11.6.0.202112161359/tools/bin/../lib/gcc/arm-none-eabi/10.3.1/../../../../arm-none-eabi/lib/thumb/v7e-m+fp/hard\libcr_c.a(memcpy.o)
__aeabi_memcpy4                                   c:/nxp/mcuxpressoide_11.6.0_8187/ide/plugins/com.nxp.mcuxpresso.tools.win32_11.6.0.202112161359/tools/bin/../lib/gcc/arm-none-eabi/10.3.1/thumb/v7e-m+fp/hard\libcr_eabihelpers.a(memcpy.o)
__aeabi_memcpy8                                   c:/nxp/mcuxpressoide_11.6.0_8187/ide/plugins/com.nxp.mcuxpresso.tools.win32_11.6.0.202112161359/tools/bin/../lib/gcc/arm-none-eabi/10.3.1/thumb/v7e-m+fp/hard\libcr_eabihelpers.a(memcpy.o)
__aeabi_memmove                                   c:/nxp/mcuxpressoide_11.6.0_8187/ide/plugins/com.nxp.mcuxpresso.tools.win32_11.6.0.202112161359/tools/bin/../lib/gcc/arm-none-eabi/10.3.1/thumb/v7e-m+fp/hard\libcr_eabihelpers.a(memcpy.o)
__aeabi_memmove4                                  c:/nxp/mcuxpressoide_11.6.0_8187/ide/plugins/com.nxp.mcuxpresso.tools.win32_11.6.0.202112161359/tools/bin/../lib/gcc/arm-none-eabi/10.3.1/thumb/v7e-m+fp/hard\libcr_eabihelpers.a(memcpy.o)
__aeabi_memmove8                                  c:/nxp/mcuxpressoide_11.6.0_8187/ide/plugins/com.nxp.mcuxpresso.tools.win32_11.6.0.202112161359/tools/bin/../lib/gcc/arm-none-eabi/10.3.1/thumb/v7e-m+fp/hard\libcr_eabihelpers.a(memcpy.o)
__aeabi_memset                                    c:/nxp/mcuxpressoide_11.6.0_8187/ide/plugins/com.nxp.mcuxpresso.tools.win32_11.6.0.202112161359/tools/bin/../lib/gcc/arm-none-eabi/10.3.1/thumb/v7e-m+fp/hard\libcr_eabihelpers.a(memcpy.o)
__aeabi_memset4                                   c:/nxp/mcuxpressoide_11.6.0_8187/ide/plugins/com.nxp.mcuxpresso.tools.win32_11.6.0.202112161359/tools/bin/../lib/gcc/arm-none-eabi/10.3.1/thumb/v7e-m+fp/hard\libcr_eabihelpers.a(memcpy.o)
__aeabi_memset8                                   c:/nxp/mcuxpressoide_11.6.0_8187/ide/plugins/com.nxp.mcuxpresso.tools.win32_11.6.0.202112161359/tools/bin/../lib/gcc/arm-none-eabi/10.3.1/thumb/v7e-m+fp/hard\libcr_eabihelpers.a(memcpy.o)
__aeabi_ui2d                                      c:/nxp/mcuxpressoide_11.6.0_8187/ide/plugins/com.nxp.mcuxpresso.tools.win32_11.6.0.202112161359/tools/bin/../lib/gcc/arm-none-eabi/10.3.1/thumb/v7e-m+fp/hard\libcr_eabihelpers.a(double.o)
__aeabi_ul2d                                      c:/nxp/mcuxpressoide_11.6.0_8187/ide/plugins/com.nxp.mcuxpresso.tools.win32_11.6.0.202112161359/tools/bin/../lib/gcc/arm-none-eabi/10.3.1/thumb/v7e-m+fp/hard\libcr_eabihelpers.a(double.o)
__aeabi_uldivmod                                  c:/nxp/mcuxpressoide_11.6.0_8187/ide/plugins/com.nxp.mcuxpresso.tools.win32_11.6.0.202112161359/tools/bin/../lib/gcc/arm-none-eabi/10.3.1/thumb/v7e-m+fp/hard\libcr_eabihelpers.a(division_64.o)
                                                  ./device/system_MIMXRT1052.o
                                                  ./drivers/fsl_common_arm.o
                                                  ./drivers/fsl_clock.o
__assertion_failed                                ./utilities/fsl_assert.o
                                                  ./board/pin_mux.o
                                                  ./board/clock_config.o
                                                  ./board/board.o
                                                  ./component/uart/fsl_adapter_lpuart.o
                                                  ./drivers/fsl_lpuart.o
                                                  ./drivers/fsl_gpio.o
                                                  ./drivers/fsl_common_arm.o
                                                  ./drivers/fsl_clock.o
__base_NCACHE_REGION                              ./board/board.o
__bhs_ldivmod1                                    c:/nxp/mcuxpressoide_11.6.0_8187/ide/plugins/com.nxp.mcuxpresso.tools.win32_11.6.0.202112161359/tools/bin/../lib/gcc/arm-none-eabi/10.3.1/thumb/v7e-m+fp/hard\libcr_eabihelpers.a(division_64.o)
__bhs_ui2d                                        c:/nxp/mcuxpressoide_11.6.0_8187/ide/plugins/com.nxp.mcuxpresso.tools.win32_11.6.0.202112161359/tools/bin/../lib/gcc/arm-none-eabi/10.3.1/thumb/v7e-m+fp/hard\libcr_eabihelpers.a(double.o)
__bhs_ul2d                                        c:/nxp/mcuxpressoide_11.6.0_8187/ide/plugins/com.nxp.mcuxpresso.tools.win32_11.6.0.202112161359/tools/bin/../lib/gcc/arm-none-eabi/10.3.1/thumb/v7e-m+fp/hard\libcr_eabihelpers.a(double.o)
__bss_section_table_end                           ./startup/startup_mimxrt1052.o
__check_heap_overflow                             c:/nxp/mcuxpressoide_11.6.0_8187/ide/plugins/com.nxp.mcuxpresso.tools.win32_11.6.0.202112161359/tools/bin/../lib/gcc/arm-none-eabi/10.3.1/../../../../arm-none-eabi/lib/thumb/v7e-m+fp/hard\libcr_c.a(_cr_check_heap.o)
                                                  c:/nxp/mcuxpressoide_11.6.0_8187/ide/plugins/com.nxp.mcuxpresso.tools.win32_11.6.0.202112161359/tools/bin/../lib/gcc/arm-none-eabi/10.3.1/../../../../arm-none-eabi/lib/thumb/v7e-m+fp/hard\libcr_c.a(_cr_sbrk.o)
__ctype                                           c:/nxp/mcuxpressoide_11.6.0_8187/ide/plugins/com.nxp.mcuxpresso.tools.win32_11.6.0.202112161359/tools/bin/../lib/gcc/arm-none-eabi/10.3.1/../../../../arm-none-eabi/lib/thumb/v7e-m+fp/hard\libcr_c.a(ctype.o)
                                                  c:/nxp/mcuxpressoide_11.6.0_8187/ide/plugins/com.nxp.mcuxpresso.tools.win32_11.6.0.202112161359/tools/bin/../lib/gcc/arm-none-eabi/10.3.1/../../../../arm-none-eabi/lib/thumb/v7e-m+fp/hard\libcr_c.a(scanf.o)
__data_section_table                              ./startup/startup_mimxrt1052.o
__data_section_table_end                          ./startup/startup_mimxrt1052.o
__end_of_heap                                     c:/nxp/mcuxpressoide_11.6.0_8187/ide/plugins/com.nxp.mcuxpresso.tools.win32_11.6.0.202112161359/tools/bin/../lib/gcc/arm-none-eabi/10.3.1/../../../../arm-none-eabi/lib/thumb/v7e-m+fp/hard\libcr_c.a(__init_alloc.o)
                                                  c:/nxp/mcuxpressoide_11.6.0_8187/ide/plugins/com.nxp.mcuxpresso.tools.win32_11.6.0.202112161359/tools/bin/../lib/gcc/arm-none-eabi/10.3.1/../../../../arm-none-eabi/lib/thumb/v7e-m+fp/hard\libcr_c.a(_cr_sbrk.o)
__exit                                            c:/nxp/mcuxpressoide_11.6.0_8187/ide/plugins/com.nxp.mcuxpresso.tools.win32_11.6.0.202112161359/tools/bin/../lib/gcc/arm-none-eabi/10.3.1/../../../../arm-none-eabi/lib/thumb/v7e-m+fp/hard\libcr_nohost_nf.a(__sys_appexit.o)
__filbuf                                          c:/nxp/mcuxpressoide_11.6.0_8187/ide/plugins/com.nxp.mcuxpresso.tools.win32_11.6.0.202112161359/tools/bin/../lib/gcc/arm-none-eabi/10.3.1/../../../../arm-none-eabi/lib/thumb/v7e-m+fp/hard\libcr_c.a(__fillbuf.o)
                                                  c:/nxp/mcuxpressoide_11.6.0_8187/ide/plugins/com.nxp.mcuxpresso.tools.win32_11.6.0.202112161359/tools/bin/../lib/gcc/arm-none-eabi/10.3.1/../../../../arm-none-eabi/lib/thumb/v7e-m+fp/hard\libcr_c.a(scanf.o)
__flsbuf                                          c:/nxp/mcuxpressoide_11.6.0_8187/ide/plugins/com.nxp.mcuxpresso.tools.win32_11.6.0.202112161359/tools/bin/../lib/gcc/arm-none-eabi/10.3.1/../../../../arm-none-eabi/lib/thumb/v7e-m+fp/hard\libcr_c.a(_deferredlazyseek.o)
__heaps                                           c:/nxp/mcuxpressoide_11.6.0_8187/ide/plugins/com.nxp.mcuxpresso.tools.win32_11.6.0.202112161359/tools/bin/../lib/gcc/arm-none-eabi/10.3.1/../../../../arm-none-eabi/lib/thumb/v7e-m+fp/hard\libcr_c.a(__init_alloc.o)
                                                  c:/nxp/mcuxpressoide_11.6.0_8187/ide/plugins/com.nxp.mcuxpresso.tools.win32_11.6.0.202112161359/tools/bin/../lib/gcc/arm-none-eabi/10.3.1/../../../../arm-none-eabi/lib/thumb/v7e-m+fp/hard\libcr_c.a(alloc.o)
__main                                            c:/nxp/mcuxpressoide_11.6.0_8187/ide/plugins/com.nxp.mcuxpresso.tools.win32_11.6.0.202112161359/tools/bin/../lib/gcc/arm-none-eabi/10.3.1/../../../../arm-none-eabi/lib/thumb/v7e-m+fp/hard\libcr_nohost_nf.a(_cr__main.o)
                                                  ./startup/startup_mimxrt1052.o
__num_Ciob_streams                                c:/nxp/mcuxpressoide_11.6.0_8187/ide/plugins/com.nxp.mcuxpresso.tools.win32_11.6.0.202112161359/tools/bin/../lib/gcc/arm-none-eabi/10.3.1/../../../../arm-none-eabi/lib/thumb/v7e-m+fp/hard\libcr_nohost_nf.a(__ciob.o)
                                                  c:/nxp/mcuxpressoide_11.6.0_8187/ide/plugins/com.nxp.mcuxpresso.tools.win32_11.6.0.202112161359/tools/bin/../lib/gcc/arm-none-eabi/10.3.1/../../../../arm-none-eabi/lib/thumb/v7e-m+fp/hard\libcr_c.a(fflush.o)
                                                  c:/nxp/mcuxpressoide_11.6.0_8187/ide/plugins/com.nxp.mcuxpresso.tools.win32_11.6.0.202112161359/tools/bin/../lib/gcc/arm-none-eabi/10.3.1/../../../../arm-none-eabi/lib/thumb/v7e-m+fp/hard\libcr_c.a(initio.o)
__readc                                           c:/nxp/mcuxpressoide_11.6.0_8187/ide/plugins/com.nxp.mcuxpresso.tools.win32_11.6.0.202112161359/tools/bin/../lib/gcc/arm-none-eabi/10.3.1/../../../../arm-none-eabi/lib/thumb/v7e-m+fp/hard\libcr_nohost_nf.a(__sys_readc.o)
__sys_appexit                                     c:/nxp/mcuxpressoide_11.6.0_8187/ide/plugins/com.nxp.mcuxpresso.tools.win32_11.6.0.202112161359/tools/bin/../lib/gcc/arm-none-eabi/10.3.1/../../../../arm-none-eabi/lib/thumb/v7e-m+fp/hard\libcr_nohost_nf.a(__sys_appexit.o)
                                                  c:/nxp/mcuxpressoide_11.6.0_8187/ide/plugins/com.nxp.mcuxpresso.tools.win32_11.6.0.202112161359/tools/bin/../lib/gcc/arm-none-eabi/10.3.1/../../../../arm-none-eabi/lib/thumb/v7e-m+fp/hard\libcr_c.a(alloc.o)
__sys_close                                       c:/nxp/mcuxpressoide_11.6.0_8187/ide/plugins/com.nxp.mcuxpresso.tools.win32_11.6.0.202112161359/tools/bin/../lib/gcc/arm-none-eabi/10.3.1/../../../../arm-none-eabi/lib/thumb/v7e-m+fp/hard\libcr_nohost_nf.a(__sys_close.o)
                                                  c:/nxp/mcuxpressoide_11.6.0_8187/ide/plugins/com.nxp.mcuxpresso.tools.win32_11.6.0.202112161359/tools/bin/../lib/gcc/arm-none-eabi/10.3.1/../../../../arm-none-eabi/lib/thumb/v7e-m+fp/hard\libcr_c.a(fclose.o)
__sys_flen                                        c:/nxp/mcuxpressoide_11.6.0_8187/ide/plugins/com.nxp.mcuxpresso.tools.win32_11.6.0.202112161359/tools/bin/../lib/gcc/arm-none-eabi/10.3.1/../../../../arm-none-eabi/lib/thumb/v7e-m+fp/hard\libcr_nohost_nf.a(__sys_flen.o)
                                                  c:/nxp/mcuxpressoide_11.6.0_8187/ide/plugins/com.nxp.mcuxpresso.tools.win32_11.6.0.202112161359/tools/bin/../lib/gcc/arm-none-eabi/10.3.1/../../../../arm-none-eabi/lib/thumb/v7e-m+fp/hard\libcr_c.a(fseek.o)
                                                  c:/nxp/mcuxpressoide_11.6.0_8187/ide/plugins/com.nxp.mcuxpresso.tools.win32_11.6.0.202112161359/tools/bin/../lib/gcc/arm-none-eabi/10.3.1/../../../../arm-none-eabi/lib/thumb/v7e-m+fp/hard\libcr_c.a(_writebuf.o)
__sys_istty                                       c:/nxp/mcuxpressoide_11.6.0_8187/ide/plugins/com.nxp.mcuxpresso.tools.win32_11.6.0.202112161359/tools/bin/../lib/gcc/arm-none-eabi/10.3.1/../../../../arm-none-eabi/lib/thumb/v7e-m+fp/hard\libcr_nohost_nf.a(__sys_istty.o)
                                                  c:/nxp/mcuxpressoide_11.6.0_8187/ide/plugins/com.nxp.mcuxpresso.tools.win32_11.6.0.202112161359/tools/bin/../lib/gcc/arm-none-eabi/10.3.1/../../../../arm-none-eabi/lib/thumb/v7e-m+fp/hard\libcr_c.a(fseek.o)
                                                  c:/nxp/mcuxpressoide_11.6.0_8187/ide/plugins/com.nxp.mcuxpresso.tools.win32_11.6.0.202112161359/tools/bin/../lib/gcc/arm-none-eabi/10.3.1/../../../../arm-none-eabi/lib/thumb/v7e-m+fp/hard\libcr_c.a(_deferredlazyseek.o)
__sys_read                                        c:/nxp/mcuxpressoide_11.6.0_8187/ide/plugins/com.nxp.mcuxpresso.tools.win32_11.6.0.202112161359/tools/bin/../lib/gcc/arm-none-eabi/10.3.1/../../../../arm-none-eabi/lib/thumb/v7e-m+fp/hard\libcr_nohost_nf.a(__sys_read.o)
                                                  c:/nxp/mcuxpressoide_11.6.0_8187/ide/plugins/com.nxp.mcuxpresso.tools.win32_11.6.0.202112161359/tools/bin/../lib/gcc/arm-none-eabi/10.3.1/../../../../arm-none-eabi/lib/thumb/v7e-m+fp/hard\libcr_c.a(__fillbuf.o)
__sys_readc                                       c:/nxp/mcuxpressoide_11.6.0_8187/ide/plugins/com.nxp.mcuxpresso.tools.win32_11.6.0.202112161359/tools/bin/../lib/gcc/arm-none-eabi/10.3.1/../../../../arm-none-eabi/lib/thumb/v7e-m+fp/hard\libcr_nohost_nf.a(__sys_readc.o)
                                                  c:/nxp/mcuxpressoide_11.6.0_8187/ide/plugins/com.nxp.mcuxpresso.tools.win32_11.6.0.202112161359/tools/bin/../lib/gcc/arm-none-eabi/10.3.1/../../../../arm-none-eabi/lib/thumb/v7e-m+fp/hard\libcr_c.a(__fillbuf.o)
__sys_remove                                      c:/nxp/mcuxpressoide_11.6.0_8187/ide/plugins/com.nxp.mcuxpresso.tools.win32_11.6.0.202112161359/tools/bin/../lib/gcc/arm-none-eabi/10.3.1/../../../../arm-none-eabi/lib/thumb/v7e-m+fp/hard\libcr_nohost_nf.a(__sys_remove.o)
                                                  c:/nxp/mcuxpressoide_11.6.0_8187/ide/plugins/com.nxp.mcuxpresso.tools.win32_11.6.0.202112161359/tools/bin/../lib/gcc/arm-none-eabi/10.3.1/../../../../arm-none-eabi/lib/thumb/v7e-m+fp/hard\libcr_c.a(remove.o)
__sys_rename                                      c:/nxp/mcuxpressoide_11.6.0_8187/ide/plugins/com.nxp.mcuxpresso.tools.win32_11.6.0.202112161359/tools/bin/../lib/gcc/arm-none-eabi/10.3.1/../../../../arm-none-eabi/lib/thumb/v7e-m+fp/hard\libcr_nohost_nf.a(__sys_rename.o)
                                                  c:/nxp/mcuxpressoide_11.6.0_8187/ide/plugins/com.nxp.mcuxpresso.tools.win32_11.6.0.202112161359/tools/bin/../lib/gcc/arm-none-eabi/10.3.1/../../../../arm-none-eabi/lib/thumb/v7e-m+fp/hard\libcr_c.a(remove.o)
__sys_seek                                        c:/nxp/mcuxpressoide_11.6.0_8187/ide/plugins/com.nxp.mcuxpresso.tools.win32_11.6.0.202112161359/tools/bin/../lib/gcc/arm-none-eabi/10.3.1/../../../../arm-none-eabi/lib/thumb/v7e-m+fp/hard\libcr_nohost_nf.a(__sys_seek.o)
                                                  c:/nxp/mcuxpressoide_11.6.0_8187/ide/plugins/com.nxp.mcuxpresso.tools.win32_11.6.0.202112161359/tools/bin/../lib/gcc/arm-none-eabi/10.3.1/../../../../arm-none-eabi/lib/thumb/v7e-m+fp/hard\libcr_c.a(_writebuf.o)
                                                  c:/nxp/mcuxpressoide_11.6.0_8187/ide/plugins/com.nxp.mcuxpresso.tools.win32_11.6.0.202112161359/tools/bin/../lib/gcc/arm-none-eabi/10.3.1/../../../../arm-none-eabi/lib/thumb/v7e-m+fp/hard\libcr_c.a(__fillbuf.o)
__sys_tmpnam                                      c:/nxp/mcuxpressoide_11.6.0_8187/ide/plugins/com.nxp.mcuxpresso.tools.win32_11.6.0.202112161359/tools/bin/../lib/gcc/arm-none-eabi/10.3.1/../../../../arm-none-eabi/lib/thumb/v7e-m+fp/hard\libcr_nohost_nf.a(__sys_tmpnam.o)
                                                  c:/nxp/mcuxpressoide_11.6.0_8187/ide/plugins/com.nxp.mcuxpresso.tools.win32_11.6.0.202112161359/tools/bin/../lib/gcc/arm-none-eabi/10.3.1/../../../../arm-none-eabi/lib/thumb/v7e-m+fp/hard\libcr_c.a(fclose.o)
__sys_write                                       c:/nxp/mcuxpressoide_11.6.0_8187/ide/plugins/com.nxp.mcuxpresso.tools.win32_11.6.0.202112161359/tools/bin/../lib/gcc/arm-none-eabi/10.3.1/../../../../arm-none-eabi/lib/thumb/v7e-m+fp/hard\libcr_nohost_nf.a(__sys_write.o)
                                                  c:/nxp/mcuxpressoide_11.6.0_8187/ide/plugins/com.nxp.mcuxpresso.tools.win32_11.6.0.202112161359/tools/bin/../lib/gcc/arm-none-eabi/10.3.1/../../../../arm-none-eabi/lib/thumb/v7e-m+fp/hard\libcr_c.a(_writebuf.o)
                                                  c:/nxp/mcuxpressoide_11.6.0_8187/ide/plugins/com.nxp.mcuxpresso.tools.win32_11.6.0.202112161359/tools/bin/../lib/gcc/arm-none-eabi/10.3.1/../../../../arm-none-eabi/lib/thumb/v7e-m+fp/hard\libcr_c.a(alloc.o)
__top_NCACHE_REGION                               ./board/board.o
_deferredlazyseek                                 c:/nxp/mcuxpressoide_11.6.0_8187/ide/plugins/com.nxp.mcuxpresso.tools.win32_11.6.0.202112161359/tools/bin/../lib/gcc/arm-none-eabi/10.3.1/../../../../arm-none-eabi/lib/thumb/v7e-m+fp/hard\libcr_c.a(_deferredlazyseek.o)
                                                  c:/nxp/mcuxpressoide_11.6.0_8187/ide/plugins/com.nxp.mcuxpresso.tools.win32_11.6.0.202112161359/tools/bin/../lib/gcc/arm-none-eabi/10.3.1/../../../../arm-none-eabi/lib/thumb/v7e-m+fp/hard\libcr_c.a(_do_fflush.o)
                                                  c:/nxp/mcuxpressoide_11.6.0_8187/ide/plugins/com.nxp.mcuxpresso.tools.win32_11.6.0.202112161359/tools/bin/../lib/gcc/arm-none-eabi/10.3.1/../../../../arm-none-eabi/lib/thumb/v7e-m+fp/hard\libcr_c.a(__fillbuf.o)
_do_fflush                                        c:/nxp/mcuxpressoide_11.6.0_8187/ide/plugins/com.nxp.mcuxpresso.tools.win32_11.6.0.202112161359/tools/bin/../lib/gcc/arm-none-eabi/10.3.1/../../../../arm-none-eabi/lib/thumb/v7e-m+fp/hard\libcr_c.a(_do_fflush.o)
                                                  c:/nxp/mcuxpressoide_11.6.0_8187/ide/plugins/com.nxp.mcuxpresso.tools.win32_11.6.0.202112161359/tools/bin/../lib/gcc/arm-none-eabi/10.3.1/../../../../arm-none-eabi/lib/thumb/v7e-m+fp/hard\libcr_c.a(fflush.o)
_fdopen                                           c:/nxp/mcuxpressoide_11.6.0_8187/ide/plugins/com.nxp.mcuxpresso.tools.win32_11.6.0.202112161359/tools/bin/../lib/gcc/arm-none-eabi/10.3.1/../../../../arm-none-eabi/lib/thumb/v7e-m+fp/hard\libcr_c.a(_fdopen.o)
                                                  c:/nxp/mcuxpressoide_11.6.0_8187/ide/plugins/com.nxp.mcuxpresso.tools.win32_11.6.0.202112161359/tools/bin/../lib/gcc/arm-none-eabi/10.3.1/../../../../arm-none-eabi/lib/thumb/v7e-m+fp/hard\libcr_c.a(initio.o)
_fflush                                           c:/nxp/mcuxpressoide_11.6.0_8187/ide/plugins/com.nxp.mcuxpresso.tools.win32_11.6.0.202112161359/tools/bin/../lib/gcc/arm-none-eabi/10.3.1/../../../../arm-none-eabi/lib/thumb/v7e-m+fp/hard\libcr_c.a(_fflush.o)
                                                  c:/nxp/mcuxpressoide_11.6.0_8187/ide/plugins/com.nxp.mcuxpresso.tools.win32_11.6.0.202112161359/tools/bin/../lib/gcc/arm-none-eabi/10.3.1/../../../../arm-none-eabi/lib/thumb/v7e-m+fp/hard\libcr_c.a(_do_fflush.o)
                                                  c:/nxp/mcuxpressoide_11.6.0_8187/ide/plugins/com.nxp.mcuxpresso.tools.win32_11.6.0.202112161359/tools/bin/../lib/gcc/arm-none-eabi/10.3.1/../../../../arm-none-eabi/lib/thumb/v7e-m+fp/hard\libcr_c.a(_deferredlazyseek.o)
                                                  c:/nxp/mcuxpressoide_11.6.0_8187/ide/plugins/com.nxp.mcuxpresso.tools.win32_11.6.0.202112161359/tools/bin/../lib/gcc/arm-none-eabi/10.3.1/../../../../arm-none-eabi/lib/thumb/v7e-m+fp/hard\libcr_c.a(__fillbuf.o)
_fillb2                                           c:/nxp/mcuxpressoide_11.6.0_8187/ide/plugins/com.nxp.mcuxpresso.tools.win32_11.6.0.202112161359/tools/bin/../lib/gcc/arm-none-eabi/10.3.1/../../../../arm-none-eabi/lib/thumb/v7e-m+fp/hard\libcr_c.a(__fillbuf.o)
_frexpl                                           c:/nxp/mcuxpressoide_11.6.0_8187/ide/plugins/com.nxp.mcuxpresso.tools.win32_11.6.0.202112161359/tools/bin/../lib/gcc/arm-none-eabi/10.3.1/../../../../arm-none-eabi/lib/thumb/v7e-m+fp/hard\libcr_c.a(_frexpl.o)
                                                  c:/nxp/mcuxpressoide_11.6.0_8187/ide/plugins/com.nxp.mcuxpresso.tools.win32_11.6.0.202112161359/tools/bin/../lib/gcc/arm-none-eabi/10.3.1/../../../../arm-none-eabi/lib/thumb/v7e-m+fp/hard\libcr_c.a(scanf.o)
_init_alloc                                       c:/nxp/mcuxpressoide_11.6.0_8187/ide/plugins/com.nxp.mcuxpresso.tools.win32_11.6.0.202112161359/tools/bin/../lib/gcc/arm-none-eabi/10.3.1/../../../../arm-none-eabi/lib/thumb/v7e-m+fp/hard\libcr_c.a(__init_alloc.o)
_initio                                           c:/nxp/mcuxpressoide_11.6.0_8187/ide/plugins/com.nxp.mcuxpresso.tools.win32_11.6.0.202112161359/tools/bin/../lib/gcc/arm-none-eabi/10.3.1/../../../../arm-none-eabi/lib/thumb/v7e-m+fp/hard\libcr_c.a(initio.o)
                                                  c:/nxp/mcuxpressoide_11.6.0_8187/ide/plugins/com.nxp.mcuxpresso.tools.win32_11.6.0.202112161359/tools/bin/../lib/gcc/arm-none-eabi/10.3.1/../../../../arm-none-eabi/lib/thumb/v7e-m+fp/hard\libcr_nohost_nf.a(_cr__main.o)
_ldexpl                                           c:/nxp/mcuxpressoide_11.6.0_8187/ide/plugins/com.nxp.mcuxpresso.tools.win32_11.6.0.202112161359/tools/bin/../lib/gcc/arm-none-eabi/10.3.1/../../../../arm-none-eabi/lib/thumb/v7e-m+fp/hard\libcr_c.a(_ldexpl.o)
                                                  c:/nxp/mcuxpressoide_11.6.0_8187/ide/plugins/com.nxp.mcuxpresso.tools.win32_11.6.0.202112161359/tools/bin/../lib/gcc/arm-none-eabi/10.3.1/../../../../arm-none-eabi/lib/thumb/v7e-m+fp/hard\libcr_c.a(scanf.o)
_ncc_vfscanf                                      c:/nxp/mcuxpressoide_11.6.0_8187/ide/plugins/com.nxp.mcuxpresso.tools.win32_11.6.0.202112161359/tools/bin/../lib/gcc/arm-none-eabi/10.3.1/../../../../arm-none-eabi/lib/thumb/v7e-m+fp/hard\libcr_c.a(scanf.o)
_pvHeapLimit                                      c:/nxp/mcuxpressoide_11.6.0_8187/ide/plugins/com.nxp.mcuxpresso.tools.win32_11.6.0.202112161359/tools/bin/../lib/gcc/arm-none-eabi/10.3.1/../../../../arm-none-eabi/lib/thumb/v7e-m+fp/hard\libcr_c.a(_cr_check_heap.o)
_pvHeapStart                                      c:/nxp/mcuxpressoide_11.6.0_8187/ide/plugins/com.nxp.mcuxpresso.tools.win32_11.6.0.202112161359/tools/bin/../lib/gcc/arm-none-eabi/10.3.1/../../../../arm-none-eabi/lib/thumb/v7e-m+fp/hard\libcr_c.a(_cr_sbrk.o)
_sbrk                                             c:/nxp/mcuxpressoide_11.6.0_8187/ide/plugins/com.nxp.mcuxpresso.tools.win32_11.6.0.202112161359/tools/bin/../lib/gcc/arm-none-eabi/10.3.1/../../../../arm-none-eabi/lib/thumb/v7e-m+fp/hard\libcr_c.a(_cr_sbrk.o)
                                                  c:/nxp/mcuxpressoide_11.6.0_8187/ide/plugins/com.nxp.mcuxpresso.tools.win32_11.6.0.202112161359/tools/bin/../lib/gcc/arm-none-eabi/10.3.1/../../../../arm-none-eabi/lib/thumb/v7e-m+fp/hard\libcr_c.a(alloc.o)
_terminateio                                      c:/nxp/mcuxpressoide_11.6.0_8187/ide/plugins/com.nxp.mcuxpresso.tools.win32_11.6.0.202112161359/tools/bin/../lib/gcc/arm-none-eabi/10.3.1/../../../../arm-none-eabi/lib/thumb/v7e-m+fp/hard\libcr_c.a(initio.o)
_vStackTop                                        ./startup/startup_mimxrt1052.o
armPllConfig_BOARD_BootClockRUN                   ./board/clock_config.o
atof                                              c:/nxp/mcuxpressoide_11.6.0_8187/ide/plugins/com.nxp.mcuxpresso.tools.win32_11.6.0.202112161359/tools/bin/../lib/gcc/arm-none-eabi/10.3.1/../../../../arm-none-eabi/lib/thumb/v7e-m+fp/hard\libcr_c.a(scanf.o)
atoi                                              c:/nxp/mcuxpressoide_11.6.0_8187/ide/plugins/com.nxp.mcuxpresso.tools.win32_11.6.0.202112161359/tools/bin/../lib/gcc/arm-none-eabi/10.3.1/../../../../arm-none-eabi/lib/thumb/v7e-m+fp/hard\libcr_c.a(scanf.o)
atol                                              c:/nxp/mcuxpressoide_11.6.0_8187/ide/plugins/com.nxp.mcuxpresso.tools.win32_11.6.0.202112161359/tools/bin/../lib/gcc/arm-none-eabi/10.3.1/../../../../arm-none-eabi/lib/thumb/v7e-m+fp/hard\libcr_c.a(scanf.o)
bss_init                                          ./startup/startup_mimxrt1052.o
calloc                                            c:/nxp/mcuxpressoide_11.6.0_8187/ide/plugins/com.nxp.mcuxpresso.tools.win32_11.6.0.202112161359/tools/bin/../lib/gcc/arm-none-eabi/10.3.1/../../../../arm-none-eabi/lib/thumb/v7e-m+fp/hard\libcr_c.a(alloc.o)
data_init                                         ./startup/startup_mimxrt1052.o
dcd_data                                          ./board/dcd.o
errno                                             c:/nxp/mcuxpressoide_11.6.0_8187/ide/plugins/com.nxp.mcuxpresso.tools.win32_11.6.0.202112161359/tools/bin/../lib/gcc/arm-none-eabi/10.3.1/../../../../arm-none-eabi/lib/thumb/v7e-m+fp/hard\libcr_c.a(errno.o)
                                                  c:/nxp/mcuxpressoide_11.6.0_8187/ide/plugins/com.nxp.mcuxpresso.tools.win32_11.6.0.202112161359/tools/bin/../lib/gcc/arm-none-eabi/10.3.1/../../../../arm-none-eabi/lib/thumb/v7e-m+fp/hard\libcr_c.a(ftell.o)
                                                  c:/nxp/mcuxpressoide_11.6.0_8187/ide/plugins/com.nxp.mcuxpresso.tools.win32_11.6.0.202112161359/tools/bin/../lib/gcc/arm-none-eabi/10.3.1/../../../../arm-none-eabi/lib/thumb/v7e-m+fp/hard\libcr_c.a(_ldexpl.o)
                                                  c:/nxp/mcuxpressoide_11.6.0_8187/ide/plugins/com.nxp.mcuxpresso.tools.win32_11.6.0.202112161359/tools/bin/../lib/gcc/arm-none-eabi/10.3.1/../../../../arm-none-eabi/lib/thumb/v7e-m+fp/hard\libcr_c.a(_cr_sbrk.o)
                                                  c:/nxp/mcuxpressoide_11.6.0_8187/ide/plugins/com.nxp.mcuxpresso.tools.win32_11.6.0.202112161359/tools/bin/../lib/gcc/arm-none-eabi/10.3.1/../../../../arm-none-eabi/lib/thumb/v7e-m+fp/hard\libcr_c.a(scanf.o)
                                                  ./utilities/fsl_str.o
fclose                                            c:/nxp/mcuxpressoide_11.6.0_8187/ide/plugins/com.nxp.mcuxpresso.tools.win32_11.6.0.202112161359/tools/bin/../lib/gcc/arm-none-eabi/10.3.1/../../../../arm-none-eabi/lib/thumb/v7e-m+fp/hard\libcr_c.a(fclose.o)
                                                  c:/nxp/mcuxpressoide_11.6.0_8187/ide/plugins/com.nxp.mcuxpresso.tools.win32_11.6.0.202112161359/tools/bin/../lib/gcc/arm-none-eabi/10.3.1/../../../../arm-none-eabi/lib/thumb/v7e-m+fp/hard\libcr_c.a(_fdopen.o)
                                                  c:/nxp/mcuxpressoide_11.6.0_8187/ide/plugins/com.nxp.mcuxpresso.tools.win32_11.6.0.202112161359/tools/bin/../lib/gcc/arm-none-eabi/10.3.1/../../../../arm-none-eabi/lib/thumb/v7e-m+fp/hard\libcr_c.a(initio.o)
fflush                                            c:/nxp/mcuxpressoide_11.6.0_8187/ide/plugins/com.nxp.mcuxpresso.tools.win32_11.6.0.202112161359/tools/bin/../lib/gcc/arm-none-eabi/10.3.1/../../../../arm-none-eabi/lib/thumb/v7e-m+fp/hard\libcr_c.a(fflush.o)
                                                  c:/nxp/mcuxpressoide_11.6.0_8187/ide/plugins/com.nxp.mcuxpresso.tools.win32_11.6.0.202112161359/tools/bin/../lib/gcc/arm-none-eabi/10.3.1/../../../../arm-none-eabi/lib/thumb/v7e-m+fp/hard\libcr_c.a(fclose.o)
free                                              c:/nxp/mcuxpressoide_11.6.0_8187/ide/plugins/com.nxp.mcuxpresso.tools.win32_11.6.0.202112161359/tools/bin/../lib/gcc/arm-none-eabi/10.3.1/../../../../arm-none-eabi/lib/thumb/v7e-m+fp/hard\libcr_c.a(alloc.o)
                                                  c:/nxp/mcuxpressoide_11.6.0_8187/ide/plugins/com.nxp.mcuxpresso.tools.win32_11.6.0.202112161359/tools/bin/../lib/gcc/arm-none-eabi/10.3.1/../../../../arm-none-eabi/lib/thumb/v7e-m+fp/hard\libcr_c.a(fclose.o)
                                                  ./drivers/fsl_common.o
fscanf                                            c:/nxp/mcuxpressoide_11.6.0_8187/ide/plugins/com.nxp.mcuxpresso.tools.win32_11.6.0.202112161359/tools/bin/../lib/gcc/arm-none-eabi/10.3.1/../../../../arm-none-eabi/lib/thumb/v7e-m+fp/hard\libcr_c.a(scanf.o)
fseek                                             c:/nxp/mcuxpressoide_11.6.0_8187/ide/plugins/com.nxp.mcuxpresso.tools.win32_11.6.0.202112161359/tools/bin/../lib/gcc/arm-none-eabi/10.3.1/../../../../arm-none-eabi/lib/thumb/v7e-m+fp/hard\libcr_c.a(fseek.o)
                                                  c:/nxp/mcuxpressoide_11.6.0_8187/ide/plugins/com.nxp.mcuxpresso.tools.win32_11.6.0.202112161359/tools/bin/../lib/gcc/arm-none-eabi/10.3.1/../../../../arm-none-eabi/lib/thumb/v7e-m+fp/hard\libcr_c.a(_do_fflush.o)
                                                  c:/nxp/mcuxpressoide_11.6.0_8187/ide/plugins/com.nxp.mcuxpresso.tools.win32_11.6.0.202112161359/tools/bin/../lib/gcc/arm-none-eabi/10.3.1/../../../../arm-none-eabi/lib/thumb/v7e-m+fp/hard\libcr_c.a(_fdopen.o)
                                                  c:/nxp/mcuxpressoide_11.6.0_8187/ide/plugins/com.nxp.mcuxpresso.tools.win32_11.6.0.202112161359/tools/bin/../lib/gcc/arm-none-eabi/10.3.1/../../../../arm-none-eabi/lib/thumb/v7e-m+fp/hard\libcr_c.a(_deferredlazyseek.o)
ftell                                             c:/nxp/mcuxpressoide_11.6.0_8187/ide/plugins/com.nxp.mcuxpresso.tools.win32_11.6.0.202112161359/tools/bin/../lib/gcc/arm-none-eabi/10.3.1/../../../../arm-none-eabi/lib/thumb/v7e-m+fp/hard\libcr_c.a(ftell.o)
                                                  c:/nxp/mcuxpressoide_11.6.0_8187/ide/plugins/com.nxp.mcuxpresso.tools.win32_11.6.0.202112161359/tools/bin/../lib/gcc/arm-none-eabi/10.3.1/../../../../arm-none-eabi/lib/thumb/v7e-m+fp/hard\libcr_c.a(fseek.o)
g_boot_data                                       ./xip/fsl_flexspi_nor_boot.o
g_pfnVectors                                      ./startup/startup_mimxrt1052.o
                                                  ./device/system_MIMXRT1052.o
g_rtcXtalFreq                                     ./drivers/fsl_clock.o
                                                  ./board/clock_config.o
g_serialHandle                                    ./utilities/fsl_debug_console.o
g_xtalFreq                                        ./drivers/fsl_clock.o
                                                  ./board/clock_config.o
                                                  ./board/board.o
hyperflash_config                                 ./xip/evkbimxrt1050_flexspi_nor_config.o
image_vector_table                                ./xip/fsl_flexspi_nor_boot.o
isalnum                                           c:/nxp/mcuxpressoide_11.6.0_8187/ide/plugins/com.nxp.mcuxpresso.tools.win32_11.6.0.202112161359/tools/bin/../lib/gcc/arm-none-eabi/10.3.1/../../../../arm-none-eabi/lib/thumb/v7e-m+fp/hard\libcr_c.a(ctype.o)
isalpha                                           c:/nxp/mcuxpressoide_11.6.0_8187/ide/plugins/com.nxp.mcuxpresso.tools.win32_11.6.0.202112161359/tools/bin/../lib/gcc/arm-none-eabi/10.3.1/../../../../arm-none-eabi/lib/thumb/v7e-m+fp/hard\libcr_c.a(ctype.o)
iscntrl                                           c:/nxp/mcuxpressoide_11.6.0_8187/ide/plugins/com.nxp.mcuxpresso.tools.win32_11.6.0.202112161359/tools/bin/../lib/gcc/arm-none-eabi/10.3.1/../../../../arm-none-eabi/lib/thumb/v7e-m+fp/hard\libcr_c.a(ctype.o)
isdigit                                           c:/nxp/mcuxpressoide_11.6.0_8187/ide/plugins/com.nxp.mcuxpresso.tools.win32_11.6.0.202112161359/tools/bin/../lib/gcc/arm-none-eabi/10.3.1/../../../../arm-none-eabi/lib/thumb/v7e-m+fp/hard\libcr_c.a(ctype.o)
isgraph                                           c:/nxp/mcuxpressoide_11.6.0_8187/ide/plugins/com.nxp.mcuxpresso.tools.win32_11.6.0.202112161359/tools/bin/../lib/gcc/arm-none-eabi/10.3.1/../../../../arm-none-eabi/lib/thumb/v7e-m+fp/hard\libcr_c.a(ctype.o)
islower                                           c:/nxp/mcuxpressoide_11.6.0_8187/ide/plugins/com.nxp.mcuxpresso.tools.win32_11.6.0.202112161359/tools/bin/../lib/gcc/arm-none-eabi/10.3.1/../../../../arm-none-eabi/lib/thumb/v7e-m+fp/hard\libcr_c.a(ctype.o)
isprint                                           c:/nxp/mcuxpressoide_11.6.0_8187/ide/plugins/com.nxp.mcuxpresso.tools.win32_11.6.0.202112161359/tools/bin/../lib/gcc/arm-none-eabi/10.3.1/../../../../arm-none-eabi/lib/thumb/v7e-m+fp/hard\libcr_c.a(ctype.o)
ispunct                                           c:/nxp/mcuxpressoide_11.6.0_8187/ide/plugins/com.nxp.mcuxpresso.tools.win32_11.6.0.202112161359/tools/bin/../lib/gcc/arm-none-eabi/10.3.1/../../../../arm-none-eabi/lib/thumb/v7e-m+fp/hard\libcr_c.a(ctype.o)
isspace                                           c:/nxp/mcuxpressoide_11.6.0_8187/ide/plugins/com.nxp.mcuxpresso.tools.win32_11.6.0.202112161359/tools/bin/../lib/gcc/arm-none-eabi/10.3.1/../../../../arm-none-eabi/lib/thumb/v7e-m+fp/hard\libcr_c.a(ctype.o)
isupper                                           c:/nxp/mcuxpressoide_11.6.0_8187/ide/plugins/com.nxp.mcuxpresso.tools.win32_11.6.0.202112161359/tools/bin/../lib/gcc/arm-none-eabi/10.3.1/../../../../arm-none-eabi/lib/thumb/v7e-m+fp/hard\libcr_c.a(ctype.o)
isxdigit                                          c:/nxp/mcuxpressoide_11.6.0_8187/ide/plugins/com.nxp.mcuxpresso.tools.win32_11.6.0.202112161359/tools/bin/../lib/gcc/arm-none-eabi/10.3.1/../../../../arm-none-eabi/lib/thumb/v7e-m+fp/hard\libcr_c.a(ctype.o)
main                                              ./source/MIMXRT1052_Project.o
                                                  c:/nxp/mcuxpressoide_11.6.0_8187/ide/plugins/com.nxp.mcuxpresso.tools.win32_11.6.0.202112161359/tools/bin/../lib/gcc/arm-none-eabi/10.3.1/../../../../arm-none-eabi/lib/thumb/v7e-m+fp/hard\libcr_nohost_nf.a(_cr__main.o)
malloc                                            c:/nxp/mcuxpressoide_11.6.0_8187/ide/plugins/com.nxp.mcuxpresso.tools.win32_11.6.0.202112161359/tools/bin/../lib/gcc/arm-none-eabi/10.3.1/../../../../arm-none-eabi/lib/thumb/v7e-m+fp/hard\libcr_c.a(alloc.o)
                                                  ./drivers/fsl_common.o
memcpy                                            c:/nxp/mcuxpressoide_11.6.0_8187/ide/plugins/com.nxp.mcuxpresso.tools.win32_11.6.0.202112161359/tools/bin/../lib/gcc/arm-none-eabi/10.3.1/../../../../arm-none-eabi/lib/thumb/v7e-m+fp/hard\libcr_c.a(memcpy.o)
                                                  c:/nxp/mcuxpressoide_11.6.0_8187/ide/plugins/com.nxp.mcuxpresso.tools.win32_11.6.0.202112161359/tools/bin/../lib/gcc/arm-none-eabi/10.3.1/../../../../arm-none-eabi/lib/thumb/v7e-m+fp/hard\libcr_c.a(alloc.o)
                                                  ./utilities/fsl_str.o
memset                                            c:/nxp/mcuxpressoide_11.6.0_8187/ide/plugins/com.nxp.mcuxpresso.tools.win32_11.6.0.202112161359/tools/bin/../lib/gcc/arm-none-eabi/10.3.1/../../../../arm-none-eabi/lib/thumb/v7e-m+fp/hard\libcr_c.a(memset.o)
                                                  c:/nxp/mcuxpressoide_11.6.0_8187/ide/plugins/com.nxp.mcuxpresso.tools.win32_11.6.0.202112161359/tools/bin/../lib/gcc/arm-none-eabi/10.3.1/../../../../arm-none-eabi/lib/thumb/v7e-m+fp/hard\libcr_c.a(fclose.o)
                                                  c:/nxp/mcuxpressoide_11.6.0_8187/ide/plugins/com.nxp.mcuxpresso.tools.win32_11.6.0.202112161359/tools/bin/../lib/gcc/arm-none-eabi/10.3.1/../../../../arm-none-eabi/lib/thumb/v7e-m+fp/hard\libcr_c.a(scanf.o)
                                                  c:/nxp/mcuxpressoide_11.6.0_8187/ide/plugins/com.nxp.mcuxpresso.tools.win32_11.6.0.202112161359/tools/bin/../lib/gcc/arm-none-eabi/10.3.1/../../../../arm-none-eabi/lib/thumb/v7e-m+fp/hard\libcr_c.a(alloc.o)
                                                  ./component/serial_manager/fsl_component_serial_manager.o
                                                  ./drivers/fsl_lpuart.o
                                                  ./utilities/fsl_debug_console.o
realloc                                           c:/nxp/mcuxpressoide_11.6.0_8187/ide/plugins/com.nxp.mcuxpresso.tools.win32_11.6.0.202112161359/tools/bin/../lib/gcc/arm-none-eabi/10.3.1/../../../../arm-none-eabi/lib/thumb/v7e-m+fp/hard\libcr_c.a(alloc.o)
remove                                            c:/nxp/mcuxpressoide_11.6.0_8187/ide/plugins/com.nxp.mcuxpresso.tools.win32_11.6.0.202112161359/tools/bin/../lib/gcc/arm-none-eabi/10.3.1/../../../../arm-none-eabi/lib/thumb/v7e-m+fp/hard\libcr_c.a(remove.o)
                                                  c:/nxp/mcuxpressoide_11.6.0_8187/ide/plugins/com.nxp.mcuxpresso.tools.win32_11.6.0.202112161359/tools/bin/../lib/gcc/arm-none-eabi/10.3.1/../../../../arm-none-eabi/lib/thumb/v7e-m+fp/hard\libcr_c.a(fclose.o)
rename                                            c:/nxp/mcuxpressoide_11.6.0_8187/ide/plugins/com.nxp.mcuxpresso.tools.win32_11.6.0.202112161359/tools/bin/../lib/gcc/arm-none-eabi/10.3.1/../../../../arm-none-eabi/lib/thumb/v7e-m+fp/hard\libcr_c.a(remove.o)
s_lpuartHandle                                    ./drivers/fsl_lpuart.o
s_lpuartIRQ                                       ./drivers/fsl_lpuart.o
s_lpuartIsr                                       ./drivers/fsl_lpuart.o
scanf                                             c:/nxp/mcuxpressoide_11.6.0_8187/ide/plugins/com.nxp.mcuxpresso.tools.win32_11.6.0.202112161359/tools/bin/../lib/gcc/arm-none-eabi/10.3.1/../../../../arm-none-eabi/lib/thumb/v7e-m+fp/hard\libcr_c.a(scanf.o)
setvbuf                                           c:/nxp/mcuxpressoide_11.6.0_8187/ide/plugins/com.nxp.mcuxpresso.tools.win32_11.6.0.202112161359/tools/bin/../lib/gcc/arm-none-eabi/10.3.1/../../../../arm-none-eabi/lib/thumb/v7e-m+fp/hard\libcr_c.a(setvbuf.o)
                                                  c:/nxp/mcuxpressoide_11.6.0_8187/ide/plugins/com.nxp.mcuxpresso.tools.win32_11.6.0.202112161359/tools/bin/../lib/gcc/arm-none-eabi/10.3.1/../../../../arm-none-eabi/lib/thumb/v7e-m+fp/hard\libcr_c.a(initio.o)
sscanf                                            c:/nxp/mcuxpressoide_11.6.0_8187/ide/plugins/com.nxp.mcuxpresso.tools.win32_11.6.0.202112161359/tools/bin/../lib/gcc/arm-none-eabi/10.3.1/../../../../arm-none-eabi/lib/thumb/v7e-m+fp/hard\libcr_c.a(scanf.o)
strlen                                            c:/nxp/mcuxpressoide_11.6.0_8187/ide/plugins/com.nxp.mcuxpresso.tools.win32_11.6.0.202112161359/tools/bin/../lib/gcc/arm-none-eabi/10.3.1/../../../../arm-none-eabi/lib/thumb/v7e-m+fp/hard\libcr_c.a(strlen.o)
                                                  c:/nxp/mcuxpressoide_11.6.0_8187/ide/plugins/com.nxp.mcuxpresso.tools.win32_11.6.0.202112161359/tools/bin/../lib/gcc/arm-none-eabi/10.3.1/../../../../arm-none-eabi/lib/thumb/v7e-m+fp/hard\libcr_c.a(remove.o)
                                                  c:/nxp/mcuxpressoide_11.6.0_8187/ide/plugins/com.nxp.mcuxpresso.tools.win32_11.6.0.202112161359/tools/bin/../lib/gcc/arm-none-eabi/10.3.1/../../../../arm-none-eabi/lib/thumb/v7e-m+fp/hard\libcr_c.a(scanf.o)
                                                  ./utilities/fsl_str.o
strtod                                            c:/nxp/mcuxpressoide_11.6.0_8187/ide/plugins/com.nxp.mcuxpresso.tools.win32_11.6.0.202112161359/tools/bin/../lib/gcc/arm-none-eabi/10.3.1/../../../../arm-none-eabi/lib/thumb/v7e-m+fp/hard\libcr_c.a(scanf.o)
strtof                                            c:/nxp/mcuxpressoide_11.6.0_8187/ide/plugins/com.nxp.mcuxpresso.tools.win32_11.6.0.202112161359/tools/bin/../lib/gcc/arm-none-eabi/10.3.1/../../../../arm-none-eabi/lib/thumb/v7e-m+fp/hard\libcr_c.a(scanf.o)
strtol                                            c:/nxp/mcuxpressoide_11.6.0_8187/ide/plugins/com.nxp.mcuxpresso.tools.win32_11.6.0.202112161359/tools/bin/../lib/gcc/arm-none-eabi/10.3.1/../../../../arm-none-eabi/lib/thumb/v7e-m+fp/hard\libcr_c.a(scanf.o)
strtoul                                           c:/nxp/mcuxpressoide_11.6.0_8187/ide/plugins/com.nxp.mcuxpresso.tools.win32_11.6.0.202112161359/tools/bin/../lib/gcc/arm-none-eabi/10.3.1/../../../../arm-none-eabi/lib/thumb/v7e-m+fp/hard\libcr_c.a(scanf.o)
                                                  ./utilities/fsl_str.o
sysPllConfig_BOARD_BootClockRUN                   ./board/clock_config.o
tolower                                           c:/nxp/mcuxpressoide_11.6.0_8187/ide/plugins/com.nxp.mcuxpresso.tools.win32_11.6.0.202112161359/tools/bin/../lib/gcc/arm-none-eabi/10.3.1/../../../../arm-none-eabi/lib/thumb/v7e-m+fp/hard\libcr_c.a(ctype.o)
toupper                                           c:/nxp/mcuxpressoide_11.6.0_8187/ide/plugins/com.nxp.mcuxpresso.tools.win32_11.6.0.202112161359/tools/bin/../lib/gcc/arm-none-eabi/10.3.1/../../../../arm-none-eabi/lib/thumb/v7e-m+fp/hard\libcr_c.a(ctype.o)
ungetc                                            c:/nxp/mcuxpressoide_11.6.0_8187/ide/plugins/com.nxp.mcuxpresso.tools.win32_11.6.0.202112161359/tools/bin/../lib/gcc/arm-none-eabi/10.3.1/../../../../arm-none-eabi/lib/thumb/v7e-m+fp/hard\libcr_c.a(ungetc.o)
                                                  c:/nxp/mcuxpressoide_11.6.0_8187/ide/plugins/com.nxp.mcuxpresso.tools.win32_11.6.0.202112161359/tools/bin/../lib/gcc/arm-none-eabi/10.3.1/../../../../arm-none-eabi/lib/thumb/v7e-m+fp/hard\libcr_c.a(scanf.o)
usb1PllConfig_BOARD_BootClockRUN                  ./board/clock_config.o
vfscanf                                           c:/nxp/mcuxpressoide_11.6.0_8187/ide/plugins/com.nxp.mcuxpresso.tools.win32_11.6.0.202112161359/tools/bin/../lib/gcc/arm-none-eabi/10.3.1/../../../../arm-none-eabi/lib/thumb/v7e-m+fp/hard\libcr_c.a(scanf.o)
videoPllConfig_BOARD_BootClockRUN                 ./board/clock_config.o
